
ModelMUSB.elf:     file format elf32-littlearm

Sections:
Idx Name          Size      VMA       LMA       File off  Algn
  0 .text         00003508  00080000  00080000  00008000  2**2
                  CONTENTS, ALLOC, LOAD, READONLY, CODE
  1 .relocate     00000688  20070000  00083508  00010000  2**3
                  CONTENTS, ALLOC, LOAD, CODE
  2 .bss          00000180  20070688  00083b90  00010688  2**2
                  ALLOC
  3 .stack        00002000  20070808  00083d10  00010688  2**0
                  ALLOC
  4 .ARM.attributes 00000029  00000000  00000000  00010688  2**0
                  CONTENTS, READONLY
  5 .comment      0000005b  00000000  00000000  000106b1  2**0
                  CONTENTS, READONLY
  6 .debug_frame  00000138  00000000  00000000  0001070c  2**2
                  CONTENTS, READONLY, DEBUGGING

Disassembly of section .text:

00080000 <_sfixed>:
   80000:	20072808 	.word	0x20072808
   80004:	00082839 	.word	0x00082839
   80008:	00082835 	.word	0x00082835
   8000c:	00082835 	.word	0x00082835
   80010:	00082835 	.word	0x00082835
   80014:	00082835 	.word	0x00082835
   80018:	00082835 	.word	0x00082835
	...
   8002c:	00082835 	.word	0x00082835
   80030:	00082835 	.word	0x00082835
   80034:	00000000 	.word	0x00000000
   80038:	00082835 	.word	0x00082835
   8003c:	00082835 	.word	0x00082835
   80040:	00082835 	.word	0x00082835
   80044:	00082835 	.word	0x00082835
   80048:	00082835 	.word	0x00082835
   8004c:	00082835 	.word	0x00082835
   80050:	00082835 	.word	0x00082835
   80054:	00082835 	.word	0x00082835
   80058:	00082835 	.word	0x00082835
   8005c:	00082835 	.word	0x00082835
   80060:	00082835 	.word	0x00082835
   80064:	00082835 	.word	0x00082835
   80068:	00000000 	.word	0x00000000
   8006c:	00082349 	.word	0x00082349
   80070:	00082425 	.word	0x00082425
   80074:	00082501 	.word	0x00082501
   80078:	000825dd 	.word	0x000825dd
	...
   80084:	00082835 	.word	0x00082835
   80088:	00082835 	.word	0x00082835
   8008c:	00082835 	.word	0x00082835
   80090:	00082835 	.word	0x00082835
   80094:	00082835 	.word	0x00082835
   80098:	00082835 	.word	0x00082835
   8009c:	00082835 	.word	0x00082835
   800a0:	00082835 	.word	0x00082835
   800a4:	00000000 	.word	0x00000000
   800a8:	00082835 	.word	0x00082835
   800ac:	00082835 	.word	0x00082835
   800b0:	00082835 	.word	0x00082835
   800b4:	00082835 	.word	0x00082835
   800b8:	00082835 	.word	0x00082835
   800bc:	00082835 	.word	0x00082835
   800c0:	00082835 	.word	0x00082835
   800c4:	00082835 	.word	0x00082835
   800c8:	00082835 	.word	0x00082835
   800cc:	00082835 	.word	0x00082835
   800d0:	00082835 	.word	0x00082835
   800d4:	00082835 	.word	0x00082835
   800d8:	00082835 	.word	0x00082835
   800dc:	00082835 	.word	0x00082835
   800e0:	0008127d 	.word	0x0008127d
   800e4:	00082835 	.word	0x00082835
   800e8:	00082835 	.word	0x00082835
   800ec:	00082835 	.word	0x00082835
   800f0:	00082835 	.word	0x00082835

000800f4 <__do_global_dtors_aux>:
   800f4:	b510      	push	{r4, lr}
   800f6:	4c05      	ldr	r4, [pc, #20]	; (8010c <__do_global_dtors_aux+0x18>)
   800f8:	7823      	ldrb	r3, [r4, #0]
   800fa:	b933      	cbnz	r3, 8010a <__do_global_dtors_aux+0x16>
   800fc:	4b04      	ldr	r3, [pc, #16]	; (80110 <__do_global_dtors_aux+0x1c>)
   800fe:	b113      	cbz	r3, 80106 <__do_global_dtors_aux+0x12>
   80100:	4804      	ldr	r0, [pc, #16]	; (80114 <__do_global_dtors_aux+0x20>)
   80102:	f3af 8000 	nop.w
   80106:	2301      	movs	r3, #1
   80108:	7023      	strb	r3, [r4, #0]
   8010a:	bd10      	pop	{r4, pc}
   8010c:	20070688 	.word	0x20070688
   80110:	00000000 	.word	0x00000000
   80114:	00083508 	.word	0x00083508

00080118 <frame_dummy>:
   80118:	4b08      	ldr	r3, [pc, #32]	; (8013c <frame_dummy+0x24>)
   8011a:	b510      	push	{r4, lr}
   8011c:	b11b      	cbz	r3, 80126 <frame_dummy+0xe>
   8011e:	4808      	ldr	r0, [pc, #32]	; (80140 <frame_dummy+0x28>)
   80120:	4908      	ldr	r1, [pc, #32]	; (80144 <frame_dummy+0x2c>)
   80122:	f3af 8000 	nop.w
   80126:	4808      	ldr	r0, [pc, #32]	; (80148 <frame_dummy+0x30>)
   80128:	6803      	ldr	r3, [r0, #0]
   8012a:	b903      	cbnz	r3, 8012e <frame_dummy+0x16>
   8012c:	bd10      	pop	{r4, pc}
   8012e:	4b07      	ldr	r3, [pc, #28]	; (8014c <frame_dummy+0x34>)
   80130:	2b00      	cmp	r3, #0
   80132:	d0fb      	beq.n	8012c <frame_dummy+0x14>
   80134:	e8bd 4010 	ldmia.w	sp!, {r4, lr}
   80138:	4718      	bx	r3
   8013a:	bf00      	nop
   8013c:	00000000 	.word	0x00000000
   80140:	00083508 	.word	0x00083508
   80144:	2007068c 	.word	0x2007068c
   80148:	00083508 	.word	0x00083508
   8014c:	00000000 	.word	0x00000000

00080150 <udi_hid_kbd_getsetting>:
   80150:	2000      	movs	r0, #0
   80152:	4770      	bx	lr

00080154 <udi_hid_kbd_setreport_valid>:
   80154:	4770      	bx	lr
   80156:	bf00      	nop

00080158 <udi_hid_kbd_enable>:
   80158:	b570      	push	{r4, r5, r6, lr}
   8015a:	4a07      	ldr	r2, [pc, #28]	; (80178 <udi_hid_kbd_enable+0x20>)
   8015c:	2300      	movs	r3, #0
   8015e:	4e07      	ldr	r6, [pc, #28]	; (8017c <udi_hid_kbd_enable+0x24>)
   80160:	4d07      	ldr	r5, [pc, #28]	; (80180 <udi_hid_kbd_enable+0x28>)
   80162:	4c08      	ldr	r4, [pc, #32]	; (80184 <udi_hid_kbd_enable+0x2c>)
   80164:	4808      	ldr	r0, [pc, #32]	; (80188 <udi_hid_kbd_enable+0x30>)
   80166:	4909      	ldr	r1, [pc, #36]	; (8018c <udi_hid_kbd_enable+0x34>)
   80168:	6013      	str	r3, [r2, #0]
   8016a:	6053      	str	r3, [r2, #4]
   8016c:	7033      	strb	r3, [r6, #0]
   8016e:	702b      	strb	r3, [r5, #0]
   80170:	7023      	strb	r3, [r4, #0]
   80172:	7003      	strb	r3, [r0, #0]
   80174:	4788      	blx	r1
   80176:	bd70      	pop	{r4, r5, r6, pc}
   80178:	200706b8 	.word	0x200706b8
   8017c:	200706c0 	.word	0x200706c0
   80180:	200706b0 	.word	0x200706b0
   80184:	200706a5 	.word	0x200706a5
   80188:	200706a4 	.word	0x200706a4
   8018c:	000829bd 	.word	0x000829bd

00080190 <udi_hid_kbd_disable>:
   80190:	b508      	push	{r3, lr}
   80192:	4b01      	ldr	r3, [pc, #4]	; (80198 <udi_hid_kbd_disable+0x8>)
   80194:	4798      	blx	r3
   80196:	bd08      	pop	{r3, pc}
   80198:	000829c9 	.word	0x000829c9

0008019c <udi_hid_kbd_setup>:
   8019c:	b510      	push	{r4, lr}
   8019e:	4903      	ldr	r1, [pc, #12]	; (801ac <udi_hid_kbd_setup+0x10>)
   801a0:	4a03      	ldr	r2, [pc, #12]	; (801b0 <udi_hid_kbd_setup+0x14>)
   801a2:	4b04      	ldr	r3, [pc, #16]	; (801b4 <udi_hid_kbd_setup+0x18>)
   801a4:	4c04      	ldr	r4, [pc, #16]	; (801b8 <udi_hid_kbd_setup+0x1c>)
   801a6:	4805      	ldr	r0, [pc, #20]	; (801bc <udi_hid_kbd_setup+0x20>)
   801a8:	47a0      	blx	r4
   801aa:	bd10      	pop	{r4, pc}
   801ac:	200706b0 	.word	0x200706b0
   801b0:	2007011c 	.word	0x2007011c
   801b4:	000801c1 	.word	0x000801c1
   801b8:	00081fc1 	.word	0x00081fc1
   801bc:	200706c0 	.word	0x200706c0

000801c0 <udi_hid_kbd_setreport>:
   801c0:	4b0b      	ldr	r3, [pc, #44]	; (801f0 <udi_hid_kbd_setreport+0x30>)
   801c2:	8858      	ldrh	r0, [r3, #2]
   801c4:	0a02      	lsrs	r2, r0, #8
   801c6:	2a02      	cmp	r2, #2
   801c8:	d001      	beq.n	801ce <udi_hid_kbd_setreport+0xe>
   801ca:	2000      	movs	r0, #0
   801cc:	4770      	bx	lr
   801ce:	f010 00ff 	ands.w	r0, r0, #255	; 0xff
   801d2:	d1fa      	bne.n	801ca <udi_hid_kbd_setreport+0xa>
   801d4:	88da      	ldrh	r2, [r3, #6]
   801d6:	2a01      	cmp	r2, #1
   801d8:	d000      	beq.n	801dc <udi_hid_kbd_setreport+0x1c>
   801da:	4770      	bx	lr
   801dc:	b410      	push	{r4}
   801de:	4905      	ldr	r1, [pc, #20]	; (801f4 <udi_hid_kbd_setreport+0x34>)
   801e0:	4c05      	ldr	r4, [pc, #20]	; (801f8 <udi_hid_kbd_setreport+0x38>)
   801e2:	819a      	strh	r2, [r3, #12]
   801e4:	609c      	str	r4, [r3, #8]
   801e6:	6119      	str	r1, [r3, #16]
   801e8:	4610      	mov	r0, r2
   801ea:	f85d 4b04 	ldr.w	r4, [sp], #4
   801ee:	e7f4      	b.n	801da <udi_hid_kbd_setreport+0x1a>
   801f0:	200707f0 	.word	0x200707f0
   801f4:	00080155 	.word	0x00080155
   801f8:	200706b4 	.word	0x200706b4

000801fc <udi_hid_kbd_report_sent>:
   801fc:	b5f0      	push	{r4, r5, r6, r7, lr}
   801fe:	4e0c      	ldr	r6, [pc, #48]	; (80230 <udi_hid_kbd_report_sent+0x34>)
   80200:	4d0c      	ldr	r5, [pc, #48]	; (80234 <udi_hid_kbd_report_sent+0x38>)
   80202:	7833      	ldrb	r3, [r6, #0]
   80204:	2400      	movs	r4, #0
   80206:	b083      	sub	sp, #12
   80208:	702c      	strb	r4, [r5, #0]
   8020a:	b17b      	cbz	r3, 8022c <udi_hid_kbd_report_sent+0x30>
   8020c:	4b0a      	ldr	r3, [pc, #40]	; (80238 <udi_hid_kbd_report_sent+0x3c>)
   8020e:	4a0b      	ldr	r2, [pc, #44]	; (8023c <udi_hid_kbd_report_sent+0x40>)
   80210:	4f0b      	ldr	r7, [pc, #44]	; (80240 <udi_hid_kbd_report_sent+0x44>)
   80212:	e892 0003 	ldmia.w	r2, {r0, r1}
   80216:	461a      	mov	r2, r3
   80218:	e883 0003 	stmia.w	r3, {r0, r1}
   8021c:	9700      	str	r7, [sp, #0]
   8021e:	4621      	mov	r1, r4
   80220:	2081      	movs	r0, #129	; 0x81
   80222:	2308      	movs	r3, #8
   80224:	4f07      	ldr	r7, [pc, #28]	; (80244 <udi_hid_kbd_report_sent+0x48>)
   80226:	7034      	strb	r4, [r6, #0]
   80228:	47b8      	blx	r7
   8022a:	7028      	strb	r0, [r5, #0]
   8022c:	b003      	add	sp, #12
   8022e:	bdf0      	pop	{r4, r5, r6, r7, pc}
   80230:	200706a4 	.word	0x200706a4
   80234:	200706a5 	.word	0x200706a5
   80238:	200706a8 	.word	0x200706a8
   8023c:	200706b8 	.word	0x200706b8
   80240:	000801fd 	.word	0x000801fd
   80244:	00081c61 	.word	0x00081c61

00080248 <udi_hid_kbd_up>:
   80248:	b5f0      	push	{r4, r5, r6, r7, lr}
   8024a:	b083      	sub	sp, #12
   8024c:	f3ef 8410 	mrs	r4, PRIMASK
   80250:	fab4 f484 	clz	r4, r4
   80254:	0964      	lsrs	r4, r4, #5
   80256:	b672      	cpsid	i
   80258:	f3bf 8f5f 	dmb	sy
   8025c:	4b34      	ldr	r3, [pc, #208]	; (80330 <udi_hid_kbd_up+0xe8>)
   8025e:	4d35      	ldr	r5, [pc, #212]	; (80334 <udi_hid_kbd_up+0xec>)
   80260:	789a      	ldrb	r2, [r3, #2]
   80262:	2100      	movs	r1, #0
   80264:	7029      	strb	r1, [r5, #0]
   80266:	b1aa      	cbz	r2, 80294 <udi_hid_kbd_up+0x4c>
   80268:	4282      	cmp	r2, r0
   8026a:	d018      	beq.n	8029e <udi_hid_kbd_up+0x56>
   8026c:	78da      	ldrb	r2, [r3, #3]
   8026e:	b18a      	cbz	r2, 80294 <udi_hid_kbd_up+0x4c>
   80270:	4282      	cmp	r2, r0
   80272:	d053      	beq.n	8031c <udi_hid_kbd_up+0xd4>
   80274:	791a      	ldrb	r2, [r3, #4]
   80276:	b16a      	cbz	r2, 80294 <udi_hid_kbd_up+0x4c>
   80278:	4282      	cmp	r2, r0
   8027a:	d051      	beq.n	80320 <udi_hid_kbd_up+0xd8>
   8027c:	795a      	ldrb	r2, [r3, #5]
   8027e:	b14a      	cbz	r2, 80294 <udi_hid_kbd_up+0x4c>
   80280:	4282      	cmp	r2, r0
   80282:	d04f      	beq.n	80324 <udi_hid_kbd_up+0xdc>
   80284:	799a      	ldrb	r2, [r3, #6]
   80286:	b12a      	cbz	r2, 80294 <udi_hid_kbd_up+0x4c>
   80288:	4282      	cmp	r2, r0
   8028a:	d04d      	beq.n	80328 <udi_hid_kbd_up+0xe0>
   8028c:	79da      	ldrb	r2, [r3, #7]
   8028e:	b10a      	cbz	r2, 80294 <udi_hid_kbd_up+0x4c>
   80290:	4282      	cmp	r2, r0
   80292:	d01d      	beq.n	802d0 <udi_hid_kbd_up+0x88>
   80294:	2c00      	cmp	r4, #0
   80296:	d139      	bne.n	8030c <udi_hid_kbd_up+0xc4>
   80298:	2001      	movs	r0, #1
   8029a:	b003      	add	sp, #12
   8029c:	bdf0      	pop	{r4, r5, r6, r7, pc}
   8029e:	2102      	movs	r1, #2
   802a0:	185a      	adds	r2, r3, r1
   802a2:	7850      	ldrb	r0, [r2, #1]
   802a4:	1c4a      	adds	r2, r1, #1
   802a6:	5458      	strb	r0, [r3, r1]
   802a8:	1898      	adds	r0, r3, r2
   802aa:	7840      	ldrb	r0, [r0, #1]
   802ac:	1c8e      	adds	r6, r1, #2
   802ae:	2e07      	cmp	r6, #7
   802b0:	5498      	strb	r0, [r3, r2]
   802b2:	4a1f      	ldr	r2, [pc, #124]	; (80330 <udi_hid_kbd_up+0xe8>)
   802b4:	d00c      	beq.n	802d0 <udi_hid_kbd_up+0x88>
   802b6:	1990      	adds	r0, r2, r6
   802b8:	7847      	ldrb	r7, [r0, #1]
   802ba:	1cc8      	adds	r0, r1, #3
   802bc:	2807      	cmp	r0, #7
   802be:	5597      	strb	r7, [r2, r6]
   802c0:	d006      	beq.n	802d0 <udi_hid_kbd_up+0x88>
   802c2:	1816      	adds	r6, r2, r0
   802c4:	7876      	ldrb	r6, [r6, #1]
   802c6:	2903      	cmp	r1, #3
   802c8:	5416      	strb	r6, [r2, r0]
   802ca:	d001      	beq.n	802d0 <udi_hid_kbd_up+0x88>
   802cc:	79d1      	ldrb	r1, [r2, #7]
   802ce:	7191      	strb	r1, [r2, #6]
   802d0:	4f19      	ldr	r7, [pc, #100]	; (80338 <udi_hid_kbd_up+0xf0>)
   802d2:	f8df e074 	ldr.w	lr, [pc, #116]	; 80348 <udi_hid_kbd_up+0x100>
   802d6:	783e      	ldrb	r6, [r7, #0]
   802d8:	2101      	movs	r1, #1
   802da:	2200      	movs	r2, #0
   802dc:	71da      	strb	r2, [r3, #7]
   802de:	f88e 1000 	strb.w	r1, [lr]
   802e2:	4b13      	ldr	r3, [pc, #76]	; (80330 <udi_hid_kbd_up+0xe8>)
   802e4:	2e00      	cmp	r6, #0
   802e6:	d1d5      	bne.n	80294 <udi_hid_kbd_up+0x4c>
   802e8:	e893 0003 	ldmia.w	r3, {r0, r1}
   802ec:	4a13      	ldr	r2, [pc, #76]	; (8033c <udi_hid_kbd_up+0xf4>)
   802ee:	4b14      	ldr	r3, [pc, #80]	; (80340 <udi_hid_kbd_up+0xf8>)
   802f0:	e882 0003 	stmia.w	r2, {r0, r1}
   802f4:	f8df c054 	ldr.w	ip, [pc, #84]	; 8034c <udi_hid_kbd_up+0x104>
   802f8:	9300      	str	r3, [sp, #0]
   802fa:	4631      	mov	r1, r6
   802fc:	2081      	movs	r0, #129	; 0x81
   802fe:	2308      	movs	r3, #8
   80300:	f88e 6000 	strb.w	r6, [lr]
   80304:	47e0      	blx	ip
   80306:	7038      	strb	r0, [r7, #0]
   80308:	2c00      	cmp	r4, #0
   8030a:	d0c5      	beq.n	80298 <udi_hid_kbd_up+0x50>
   8030c:	2301      	movs	r3, #1
   8030e:	702b      	strb	r3, [r5, #0]
   80310:	f3bf 8f5f 	dmb	sy
   80314:	b662      	cpsie	i
   80316:	2001      	movs	r0, #1
   80318:	b003      	add	sp, #12
   8031a:	bdf0      	pop	{r4, r5, r6, r7, pc}
   8031c:	2103      	movs	r1, #3
   8031e:	e7bf      	b.n	802a0 <udi_hid_kbd_up+0x58>
   80320:	2104      	movs	r1, #4
   80322:	e7bd      	b.n	802a0 <udi_hid_kbd_up+0x58>
   80324:	2105      	movs	r1, #5
   80326:	e7bb      	b.n	802a0 <udi_hid_kbd_up+0x58>
   80328:	4a06      	ldr	r2, [pc, #24]	; (80344 <udi_hid_kbd_up+0xfc>)
   8032a:	7852      	ldrb	r2, [r2, #1]
   8032c:	719a      	strb	r2, [r3, #6]
   8032e:	e7cf      	b.n	802d0 <udi_hid_kbd_up+0x88>
   80330:	200706b8 	.word	0x200706b8
   80334:	200701f6 	.word	0x200701f6
   80338:	200706a5 	.word	0x200706a5
   8033c:	200706a8 	.word	0x200706a8
   80340:	000801fd 	.word	0x000801fd
   80344:	200706be 	.word	0x200706be
   80348:	200706a4 	.word	0x200706a4
   8034c:	00081c61 	.word	0x00081c61

00080350 <udi_hid_kbd_down>:
   80350:	e92d 41f0 	stmdb	sp!, {r4, r5, r6, r7, r8, lr}
   80354:	b082      	sub	sp, #8
   80356:	f3ef 8410 	mrs	r4, PRIMASK
   8035a:	fab4 f484 	clz	r4, r4
   8035e:	0964      	lsrs	r4, r4, #5
   80360:	b672      	cpsid	i
   80362:	f3bf 8f5f 	dmb	sy
   80366:	4b32      	ldr	r3, [pc, #200]	; (80430 <udi_hid_kbd_down+0xe0>)
   80368:	4d32      	ldr	r5, [pc, #200]	; (80434 <udi_hid_kbd_down+0xe4>)
   8036a:	789a      	ldrb	r2, [r3, #2]
   8036c:	2100      	movs	r1, #0
   8036e:	7029      	strb	r1, [r5, #0]
   80370:	b1fa      	cbz	r2, 803b2 <udi_hid_kbd_down+0x62>
   80372:	4282      	cmp	r2, r0
   80374:	d03b      	beq.n	803ee <udi_hid_kbd_down+0x9e>
   80376:	78da      	ldrb	r2, [r3, #3]
   80378:	2a00      	cmp	r2, #0
   8037a:	d04e      	beq.n	8041a <udi_hid_kbd_down+0xca>
   8037c:	4282      	cmp	r2, r0
   8037e:	d036      	beq.n	803ee <udi_hid_kbd_down+0x9e>
   80380:	791a      	ldrb	r2, [r3, #4]
   80382:	2a00      	cmp	r2, #0
   80384:	d04b      	beq.n	8041e <udi_hid_kbd_down+0xce>
   80386:	4282      	cmp	r2, r0
   80388:	d031      	beq.n	803ee <udi_hid_kbd_down+0x9e>
   8038a:	795a      	ldrb	r2, [r3, #5]
   8038c:	2a00      	cmp	r2, #0
   8038e:	d048      	beq.n	80422 <udi_hid_kbd_down+0xd2>
   80390:	4282      	cmp	r2, r0
   80392:	d02c      	beq.n	803ee <udi_hid_kbd_down+0x9e>
   80394:	799a      	ldrb	r2, [r3, #6]
   80396:	2a00      	cmp	r2, #0
   80398:	d045      	beq.n	80426 <udi_hid_kbd_down+0xd6>
   8039a:	4282      	cmp	r2, r0
   8039c:	d027      	beq.n	803ee <udi_hid_kbd_down+0x9e>
   8039e:	79da      	ldrb	r2, [r3, #7]
   803a0:	2a00      	cmp	r2, #0
   803a2:	d042      	beq.n	8042a <udi_hid_kbd_down+0xda>
   803a4:	4282      	cmp	r2, r0
   803a6:	d022      	beq.n	803ee <udi_hid_kbd_down+0x9e>
   803a8:	bb84      	cbnz	r4, 8040c <udi_hid_kbd_down+0xbc>
   803aa:	4620      	mov	r0, r4
   803ac:	b002      	add	sp, #8
   803ae:	e8bd 81f0 	ldmia.w	sp!, {r4, r5, r6, r7, r8, pc}
   803b2:	2202      	movs	r2, #2
   803b4:	f8df 8088 	ldr.w	r8, [pc, #136]	; 80440 <udi_hid_kbd_down+0xf0>
   803b8:	4f1f      	ldr	r7, [pc, #124]	; (80438 <udi_hid_kbd_down+0xe8>)
   803ba:	f898 6000 	ldrb.w	r6, [r8]
   803be:	2101      	movs	r1, #1
   803c0:	5498      	strb	r0, [r3, r2]
   803c2:	7039      	strb	r1, [r7, #0]
   803c4:	4a1a      	ldr	r2, [pc, #104]	; (80430 <udi_hid_kbd_down+0xe0>)
   803c6:	b996      	cbnz	r6, 803ee <udi_hid_kbd_down+0x9e>
   803c8:	e892 0003 	ldmia.w	r2, {r0, r1}
   803cc:	4b1b      	ldr	r3, [pc, #108]	; (8043c <udi_hid_kbd_down+0xec>)
   803ce:	f8df e074 	ldr.w	lr, [pc, #116]	; 80444 <udi_hid_kbd_down+0xf4>
   803d2:	e883 0003 	stmia.w	r3, {r0, r1}
   803d6:	461a      	mov	r2, r3
   803d8:	f8cd e000 	str.w	lr, [sp]
   803dc:	4631      	mov	r1, r6
   803de:	2081      	movs	r0, #129	; 0x81
   803e0:	2308      	movs	r3, #8
   803e2:	f8df c064 	ldr.w	ip, [pc, #100]	; 80448 <udi_hid_kbd_down+0xf8>
   803e6:	703e      	strb	r6, [r7, #0]
   803e8:	47e0      	blx	ip
   803ea:	f888 0000 	strb.w	r0, [r8]
   803ee:	b924      	cbnz	r4, 803fa <udi_hid_kbd_down+0xaa>
   803f0:	2401      	movs	r4, #1
   803f2:	4620      	mov	r0, r4
   803f4:	b002      	add	sp, #8
   803f6:	e8bd 81f0 	ldmia.w	sp!, {r4, r5, r6, r7, r8, pc}
   803fa:	2301      	movs	r3, #1
   803fc:	702b      	strb	r3, [r5, #0]
   803fe:	f3bf 8f5f 	dmb	sy
   80402:	b662      	cpsie	i
   80404:	4620      	mov	r0, r4
   80406:	b002      	add	sp, #8
   80408:	e8bd 81f0 	ldmia.w	sp!, {r4, r5, r6, r7, r8, pc}
   8040c:	2301      	movs	r3, #1
   8040e:	702b      	strb	r3, [r5, #0]
   80410:	f3bf 8f5f 	dmb	sy
   80414:	b662      	cpsie	i
   80416:	2400      	movs	r4, #0
   80418:	e7c7      	b.n	803aa <udi_hid_kbd_down+0x5a>
   8041a:	2203      	movs	r2, #3
   8041c:	e7ca      	b.n	803b4 <udi_hid_kbd_down+0x64>
   8041e:	2204      	movs	r2, #4
   80420:	e7c8      	b.n	803b4 <udi_hid_kbd_down+0x64>
   80422:	2205      	movs	r2, #5
   80424:	e7c6      	b.n	803b4 <udi_hid_kbd_down+0x64>
   80426:	2206      	movs	r2, #6
   80428:	e7c4      	b.n	803b4 <udi_hid_kbd_down+0x64>
   8042a:	2207      	movs	r2, #7
   8042c:	e7c2      	b.n	803b4 <udi_hid_kbd_down+0x64>
   8042e:	bf00      	nop
   80430:	200706b8 	.word	0x200706b8
   80434:	200701f6 	.word	0x200701f6
   80438:	200706a4 	.word	0x200706a4
   8043c:	200706a8 	.word	0x200706a8
   80440:	200706a5 	.word	0x200706a5
   80444:	000801fd 	.word	0x000801fd
   80448:	00081c61 	.word	0x00081c61

0008044c <udc_valid_address>:
   8044c:	b508      	push	{r3, lr}
   8044e:	4a03      	ldr	r2, [pc, #12]	; (8045c <udc_valid_address+0x10>)
   80450:	4b03      	ldr	r3, [pc, #12]	; (80460 <udc_valid_address+0x14>)
   80452:	7890      	ldrb	r0, [r2, #2]
   80454:	f000 007f 	and.w	r0, r0, #127	; 0x7f
   80458:	4798      	blx	r3
   8045a:	bd08      	pop	{r3, pc}
   8045c:	200707f0 	.word	0x200707f0
   80460:	000819dd 	.word	0x000819dd

00080464 <udc_update_iface_desc.part.0>:
   80464:	4b11      	ldr	r3, [pc, #68]	; (804ac <udc_update_iface_desc.part.0+0x48>)
   80466:	681b      	ldr	r3, [r3, #0]
   80468:	681b      	ldr	r3, [r3, #0]
   8046a:	791a      	ldrb	r2, [r3, #4]
   8046c:	4282      	cmp	r2, r0
   8046e:	d91b      	bls.n	804a8 <udc_update_iface_desc.part.0+0x44>
   80470:	b430      	push	{r4, r5}
   80472:	4d0f      	ldr	r5, [pc, #60]	; (804b0 <udc_update_iface_desc.part.0+0x4c>)
   80474:	602b      	str	r3, [r5, #0]
   80476:	885c      	ldrh	r4, [r3, #2]
   80478:	441c      	add	r4, r3
   8047a:	42a3      	cmp	r3, r4
   8047c:	d304      	bcc.n	80488 <udc_update_iface_desc.part.0+0x24>
   8047e:	e010      	b.n	804a2 <udc_update_iface_desc.part.0+0x3e>
   80480:	781a      	ldrb	r2, [r3, #0]
   80482:	4413      	add	r3, r2
   80484:	429c      	cmp	r4, r3
   80486:	d90b      	bls.n	804a0 <udc_update_iface_desc.part.0+0x3c>
   80488:	785a      	ldrb	r2, [r3, #1]
   8048a:	2a04      	cmp	r2, #4
   8048c:	d1f8      	bne.n	80480 <udc_update_iface_desc.part.0+0x1c>
   8048e:	789a      	ldrb	r2, [r3, #2]
   80490:	4282      	cmp	r2, r0
   80492:	d1f5      	bne.n	80480 <udc_update_iface_desc.part.0+0x1c>
   80494:	78da      	ldrb	r2, [r3, #3]
   80496:	428a      	cmp	r2, r1
   80498:	d1f2      	bne.n	80480 <udc_update_iface_desc.part.0+0x1c>
   8049a:	602b      	str	r3, [r5, #0]
   8049c:	2001      	movs	r0, #1
   8049e:	e001      	b.n	804a4 <udc_update_iface_desc.part.0+0x40>
   804a0:	602b      	str	r3, [r5, #0]
   804a2:	2000      	movs	r0, #0
   804a4:	bc30      	pop	{r4, r5}
   804a6:	4770      	bx	lr
   804a8:	2000      	movs	r0, #0
   804aa:	4770      	bx	lr
   804ac:	200706c4 	.word	0x200706c4
   804b0:	200706d4 	.word	0x200706d4

000804b4 <udc_iface_disable.part.1>:
   804b4:	b5f8      	push	{r3, r4, r5, r6, r7, lr}
   804b6:	4f20      	ldr	r7, [pc, #128]	; (80538 <udc_iface_disable.part.1+0x84>)
   804b8:	4606      	mov	r6, r0
   804ba:	683b      	ldr	r3, [r7, #0]
   804bc:	685b      	ldr	r3, [r3, #4]
   804be:	f853 5020 	ldr.w	r5, [r3, r0, lsl #2]
   804c2:	68eb      	ldr	r3, [r5, #12]
   804c4:	4798      	blx	r3
   804c6:	4b1d      	ldr	r3, [pc, #116]	; (8053c <udc_iface_disable.part.1+0x88>)
   804c8:	781b      	ldrb	r3, [r3, #0]
   804ca:	b90b      	cbnz	r3, 804d0 <udc_iface_disable.part.1+0x1c>
   804cc:	2000      	movs	r0, #0
   804ce:	bdf8      	pop	{r3, r4, r5, r6, r7, pc}
   804d0:	683b      	ldr	r3, [r7, #0]
   804d2:	681b      	ldr	r3, [r3, #0]
   804d4:	791a      	ldrb	r2, [r3, #4]
   804d6:	42b2      	cmp	r2, r6
   804d8:	d9f8      	bls.n	804cc <udc_iface_disable.part.1+0x18>
   804da:	4919      	ldr	r1, [pc, #100]	; (80540 <udc_iface_disable.part.1+0x8c>)
   804dc:	600b      	str	r3, [r1, #0]
   804de:	885a      	ldrh	r2, [r3, #2]
   804e0:	441a      	add	r2, r3
   804e2:	4293      	cmp	r3, r2
   804e4:	d2f2      	bcs.n	804cc <udc_iface_disable.part.1+0x18>
   804e6:	461c      	mov	r4, r3
   804e8:	e003      	b.n	804f2 <udc_iface_disable.part.1+0x3e>
   804ea:	7823      	ldrb	r3, [r4, #0]
   804ec:	441c      	add	r4, r3
   804ee:	42a2      	cmp	r2, r4
   804f0:	d918      	bls.n	80524 <udc_iface_disable.part.1+0x70>
   804f2:	7863      	ldrb	r3, [r4, #1]
   804f4:	2b04      	cmp	r3, #4
   804f6:	d1f8      	bne.n	804ea <udc_iface_disable.part.1+0x36>
   804f8:	78a3      	ldrb	r3, [r4, #2]
   804fa:	42b3      	cmp	r3, r6
   804fc:	d1f5      	bne.n	804ea <udc_iface_disable.part.1+0x36>
   804fe:	78e3      	ldrb	r3, [r4, #3]
   80500:	4283      	cmp	r3, r0
   80502:	d1f2      	bne.n	804ea <udc_iface_disable.part.1+0x36>
   80504:	600c      	str	r4, [r1, #0]
   80506:	4e0f      	ldr	r6, [pc, #60]	; (80544 <udc_iface_disable.part.1+0x90>)
   80508:	e004      	b.n	80514 <udc_iface_disable.part.1+0x60>
   8050a:	7863      	ldrb	r3, [r4, #1]
   8050c:	2b04      	cmp	r3, #4
   8050e:	d005      	beq.n	8051c <udc_iface_disable.part.1+0x68>
   80510:	2b05      	cmp	r3, #5
   80512:	d00a      	beq.n	8052a <udc_iface_disable.part.1+0x76>
   80514:	7823      	ldrb	r3, [r4, #0]
   80516:	441c      	add	r4, r3
   80518:	42a2      	cmp	r2, r4
   8051a:	d8f6      	bhi.n	8050a <udc_iface_disable.part.1+0x56>
   8051c:	686b      	ldr	r3, [r5, #4]
   8051e:	4798      	blx	r3
   80520:	2001      	movs	r0, #1
   80522:	bdf8      	pop	{r3, r4, r5, r6, r7, pc}
   80524:	600c      	str	r4, [r1, #0]
   80526:	2000      	movs	r0, #0
   80528:	bdf8      	pop	{r3, r4, r5, r6, r7, pc}
   8052a:	78a0      	ldrb	r0, [r4, #2]
   8052c:	47b0      	blx	r6
   8052e:	683b      	ldr	r3, [r7, #0]
   80530:	681b      	ldr	r3, [r3, #0]
   80532:	885a      	ldrh	r2, [r3, #2]
   80534:	441a      	add	r2, r3
   80536:	e7ed      	b.n	80514 <udc_iface_disable.part.1+0x60>
   80538:	200706c4 	.word	0x200706c4
   8053c:	200706d0 	.word	0x200706d0
   80540:	200706d4 	.word	0x200706d4
   80544:	00081a21 	.word	0x00081a21

00080548 <udc_get_interface_desc>:
   80548:	4b01      	ldr	r3, [pc, #4]	; (80550 <udc_get_interface_desc+0x8>)
   8054a:	6818      	ldr	r0, [r3, #0]
   8054c:	4770      	bx	lr
   8054e:	bf00      	nop
   80550:	200706d4 	.word	0x200706d4

00080554 <udc_start>:
   80554:	b508      	push	{r3, lr}
   80556:	4b01      	ldr	r3, [pc, #4]	; (8055c <udc_start+0x8>)
   80558:	4798      	blx	r3
   8055a:	bd08      	pop	{r3, pc}
   8055c:	00081051 	.word	0x00081051

00080560 <udc_reset>:
   80560:	e92d 41f0 	stmdb	sp!, {r4, r5, r6, r7, r8, lr}
   80564:	4d1f      	ldr	r5, [pc, #124]	; (805e4 <udc_reset+0x84>)
   80566:	782b      	ldrb	r3, [r5, #0]
   80568:	2b00      	cmp	r3, #0
   8056a:	d033      	beq.n	805d4 <udc_reset+0x74>
   8056c:	4f1e      	ldr	r7, [pc, #120]	; (805e8 <udc_reset+0x88>)
   8056e:	683a      	ldr	r2, [r7, #0]
   80570:	f8d2 e000 	ldr.w	lr, [r2]
   80574:	f89e 0004 	ldrb.w	r0, [lr, #4]
   80578:	b360      	cbz	r0, 805d4 <udc_reset+0x74>
   8057a:	4e1c      	ldr	r6, [pc, #112]	; (805ec <udc_reset+0x8c>)
   8057c:	f8df 8074 	ldr.w	r8, [pc, #116]	; 805f4 <udc_reset+0x94>
   80580:	2400      	movs	r4, #0
   80582:	b933      	cbnz	r3, 80592 <udc_reset+0x32>
   80584:	3401      	adds	r4, #1
   80586:	b2e4      	uxtb	r4, r4
   80588:	4284      	cmp	r4, r0
   8058a:	d223      	bcs.n	805d4 <udc_reset+0x74>
   8058c:	782b      	ldrb	r3, [r5, #0]
   8058e:	2b00      	cmp	r3, #0
   80590:	d0f8      	beq.n	80584 <udc_reset+0x24>
   80592:	4284      	cmp	r4, r0
   80594:	d2f6      	bcs.n	80584 <udc_reset+0x24>
   80596:	f8c6 e000 	str.w	lr, [r6]
   8059a:	f8be 1002 	ldrh.w	r1, [lr, #2]
   8059e:	4471      	add	r1, lr
   805a0:	4571      	cmp	r1, lr
   805a2:	d9ef      	bls.n	80584 <udc_reset+0x24>
   805a4:	4673      	mov	r3, lr
   805a6:	e003      	b.n	805b0 <udc_reset+0x50>
   805a8:	781a      	ldrb	r2, [r3, #0]
   805aa:	4413      	add	r3, r2
   805ac:	4299      	cmp	r1, r3
   805ae:	d917      	bls.n	805e0 <udc_reset+0x80>
   805b0:	785a      	ldrb	r2, [r3, #1]
   805b2:	2a04      	cmp	r2, #4
   805b4:	d1f8      	bne.n	805a8 <udc_reset+0x48>
   805b6:	789a      	ldrb	r2, [r3, #2]
   805b8:	42a2      	cmp	r2, r4
   805ba:	d1f5      	bne.n	805a8 <udc_reset+0x48>
   805bc:	78da      	ldrb	r2, [r3, #3]
   805be:	2a00      	cmp	r2, #0
   805c0:	d1f2      	bne.n	805a8 <udc_reset+0x48>
   805c2:	4620      	mov	r0, r4
   805c4:	6033      	str	r3, [r6, #0]
   805c6:	47c0      	blx	r8
   805c8:	683b      	ldr	r3, [r7, #0]
   805ca:	f8d3 e000 	ldr.w	lr, [r3]
   805ce:	f89e 0004 	ldrb.w	r0, [lr, #4]
   805d2:	e7d7      	b.n	80584 <udc_reset+0x24>
   805d4:	4a06      	ldr	r2, [pc, #24]	; (805f0 <udc_reset+0x90>)
   805d6:	2300      	movs	r3, #0
   805d8:	8013      	strh	r3, [r2, #0]
   805da:	702b      	strb	r3, [r5, #0]
   805dc:	e8bd 81f0 	ldmia.w	sp!, {r4, r5, r6, r7, r8, pc}
   805e0:	6033      	str	r3, [r6, #0]
   805e2:	e7cf      	b.n	80584 <udc_reset+0x24>
   805e4:	200706d0 	.word	0x200706d0
   805e8:	200706c4 	.word	0x200706c4
   805ec:	200706d4 	.word	0x200706d4
   805f0:	200706ce 	.word	0x200706ce
   805f4:	000804b5 	.word	0x000804b5

000805f8 <udc_sof_notify>:
   805f8:	b538      	push	{r3, r4, r5, lr}
   805fa:	4b0b      	ldr	r3, [pc, #44]	; (80628 <udc_sof_notify+0x30>)
   805fc:	781b      	ldrb	r3, [r3, #0]
   805fe:	b193      	cbz	r3, 80626 <udc_sof_notify+0x2e>
   80600:	4d0a      	ldr	r5, [pc, #40]	; (8062c <udc_sof_notify+0x34>)
   80602:	682a      	ldr	r2, [r5, #0]
   80604:	6813      	ldr	r3, [r2, #0]
   80606:	7919      	ldrb	r1, [r3, #4]
   80608:	b169      	cbz	r1, 80626 <udc_sof_notify+0x2e>
   8060a:	2400      	movs	r4, #0
   8060c:	6853      	ldr	r3, [r2, #4]
   8060e:	f853 3024 	ldr.w	r3, [r3, r4, lsl #2]
   80612:	691b      	ldr	r3, [r3, #16]
   80614:	b11b      	cbz	r3, 8061e <udc_sof_notify+0x26>
   80616:	4798      	blx	r3
   80618:	682a      	ldr	r2, [r5, #0]
   8061a:	6813      	ldr	r3, [r2, #0]
   8061c:	7919      	ldrb	r1, [r3, #4]
   8061e:	3401      	adds	r4, #1
   80620:	b2e4      	uxtb	r4, r4
   80622:	428c      	cmp	r4, r1
   80624:	d3f2      	bcc.n	8060c <udc_sof_notify+0x14>
   80626:	bd38      	pop	{r3, r4, r5, pc}
   80628:	200706d0 	.word	0x200706d0
   8062c:	200706c4 	.word	0x200706c4

00080630 <udc_process_setup>:
   80630:	e92d 4ff8 	stmdb	sp!, {r3, r4, r5, r6, r7, r8, r9, sl, fp, lr}
   80634:	4da4      	ldr	r5, [pc, #656]	; (808c8 <udc_process_setup+0x298>)
   80636:	2200      	movs	r2, #0
   80638:	782b      	ldrb	r3, [r5, #0]
   8063a:	81aa      	strh	r2, [r5, #12]
   8063c:	612a      	str	r2, [r5, #16]
   8063e:	616a      	str	r2, [r5, #20]
   80640:	061a      	lsls	r2, r3, #24
   80642:	d40b      	bmi.n	8065c <udc_process_setup+0x2c>
   80644:	f013 0f60 	tst.w	r3, #96	; 0x60
   80648:	d022      	beq.n	80690 <udc_process_setup+0x60>
   8064a:	f003 031f 	and.w	r3, r3, #31
   8064e:	2b01      	cmp	r3, #1
   80650:	d07b      	beq.n	8074a <udc_process_setup+0x11a>
   80652:	2b02      	cmp	r3, #2
   80654:	d037      	beq.n	806c6 <udc_process_setup+0x96>
   80656:	2000      	movs	r0, #0
   80658:	e8bd 8ff8 	ldmia.w	sp!, {r3, r4, r5, r6, r7, r8, r9, sl, fp, pc}
   8065c:	88ec      	ldrh	r4, [r5, #6]
   8065e:	2c00      	cmp	r4, #0
   80660:	d0f9      	beq.n	80656 <udc_process_setup+0x26>
   80662:	f013 0160 	ands.w	r1, r3, #96	; 0x60
   80666:	d1f0      	bne.n	8064a <udc_process_setup+0x1a>
   80668:	f013 031f 	ands.w	r3, r3, #31
   8066c:	f040 8146 	bne.w	808fc <udc_process_setup+0x2cc>
   80670:	786b      	ldrb	r3, [r5, #1]
   80672:	2b06      	cmp	r3, #6
   80674:	f000 8194 	beq.w	809a0 <udc_process_setup+0x370>
   80678:	2b08      	cmp	r3, #8
   8067a:	f000 81ea 	beq.w	80a52 <udc_process_setup+0x422>
   8067e:	2b00      	cmp	r3, #0
   80680:	d1e9      	bne.n	80656 <udc_process_setup+0x26>
   80682:	2c02      	cmp	r4, #2
   80684:	d1e7      	bne.n	80656 <udc_process_setup+0x26>
   80686:	4621      	mov	r1, r4
   80688:	4890      	ldr	r0, [pc, #576]	; (808cc <udc_process_setup+0x29c>)
   8068a:	4b91      	ldr	r3, [pc, #580]	; (808d0 <udc_process_setup+0x2a0>)
   8068c:	4798      	blx	r3
   8068e:	e017      	b.n	806c0 <udc_process_setup+0x90>
   80690:	f013 031f 	ands.w	r3, r3, #31
   80694:	f040 808d 	bne.w	807b2 <udc_process_setup+0x182>
   80698:	786b      	ldrb	r3, [r5, #1]
   8069a:	2b05      	cmp	r3, #5
   8069c:	f000 8144 	beq.w	80928 <udc_process_setup+0x2f8>
   806a0:	2b09      	cmp	r3, #9
   806a2:	f000 80a4 	beq.w	807ee <udc_process_setup+0x1be>
   806a6:	2b01      	cmp	r3, #1
   806a8:	d1d5      	bne.n	80656 <udc_process_setup+0x26>
   806aa:	88eb      	ldrh	r3, [r5, #6]
   806ac:	2b00      	cmp	r3, #0
   806ae:	d1d2      	bne.n	80656 <udc_process_setup+0x26>
   806b0:	886b      	ldrh	r3, [r5, #2]
   806b2:	2b01      	cmp	r3, #1
   806b4:	d1cf      	bne.n	80656 <udc_process_setup+0x26>
   806b6:	4a85      	ldr	r2, [pc, #532]	; (808cc <udc_process_setup+0x29c>)
   806b8:	8813      	ldrh	r3, [r2, #0]
   806ba:	f023 0302 	bic.w	r3, r3, #2
   806be:	8013      	strh	r3, [r2, #0]
   806c0:	2001      	movs	r0, #1
   806c2:	e8bd 8ff8 	ldmia.w	sp!, {r3, r4, r5, r6, r7, r8, r9, sl, fp, pc}
   806c6:	4c83      	ldr	r4, [pc, #524]	; (808d4 <udc_process_setup+0x2a4>)
   806c8:	7823      	ldrb	r3, [r4, #0]
   806ca:	2b00      	cmp	r3, #0
   806cc:	d0c3      	beq.n	80656 <udc_process_setup+0x26>
   806ce:	4f82      	ldr	r7, [pc, #520]	; (808d8 <udc_process_setup+0x2a8>)
   806d0:	683b      	ldr	r3, [r7, #0]
   806d2:	681a      	ldr	r2, [r3, #0]
   806d4:	7912      	ldrb	r2, [r2, #4]
   806d6:	2a00      	cmp	r2, #0
   806d8:	d0bd      	beq.n	80656 <udc_process_setup+0x26>
   806da:	4d80      	ldr	r5, [pc, #512]	; (808dc <udc_process_setup+0x2ac>)
   806dc:	2600      	movs	r6, #0
   806de:	685b      	ldr	r3, [r3, #4]
   806e0:	f853 9026 	ldr.w	r9, [r3, r6, lsl #2]
   806e4:	f8d9 300c 	ldr.w	r3, [r9, #12]
   806e8:	4798      	blx	r3
   806ea:	7823      	ldrb	r3, [r4, #0]
   806ec:	2b00      	cmp	r3, #0
   806ee:	d0b2      	beq.n	80656 <udc_process_setup+0x26>
   806f0:	683b      	ldr	r3, [r7, #0]
   806f2:	681b      	ldr	r3, [r3, #0]
   806f4:	791a      	ldrb	r2, [r3, #4]
   806f6:	42b2      	cmp	r2, r6
   806f8:	d9ad      	bls.n	80656 <udc_process_setup+0x26>
   806fa:	602b      	str	r3, [r5, #0]
   806fc:	8859      	ldrh	r1, [r3, #2]
   806fe:	f8df 81dc 	ldr.w	r8, [pc, #476]	; 808dc <udc_process_setup+0x2ac>
   80702:	4419      	add	r1, r3
   80704:	428b      	cmp	r3, r1
   80706:	d304      	bcc.n	80712 <udc_process_setup+0xe2>
   80708:	e7a5      	b.n	80656 <udc_process_setup+0x26>
   8070a:	781a      	ldrb	r2, [r3, #0]
   8070c:	4413      	add	r3, r2
   8070e:	4299      	cmp	r1, r3
   80710:	d916      	bls.n	80740 <udc_process_setup+0x110>
   80712:	785a      	ldrb	r2, [r3, #1]
   80714:	2a04      	cmp	r2, #4
   80716:	d1f8      	bne.n	8070a <udc_process_setup+0xda>
   80718:	789a      	ldrb	r2, [r3, #2]
   8071a:	42b2      	cmp	r2, r6
   8071c:	d1f5      	bne.n	8070a <udc_process_setup+0xda>
   8071e:	78da      	ldrb	r2, [r3, #3]
   80720:	4282      	cmp	r2, r0
   80722:	d1f2      	bne.n	8070a <udc_process_setup+0xda>
   80724:	f8d9 2008 	ldr.w	r2, [r9, #8]
   80728:	602b      	str	r3, [r5, #0]
   8072a:	4790      	blx	r2
   8072c:	2800      	cmp	r0, #0
   8072e:	d1c7      	bne.n	806c0 <udc_process_setup+0x90>
   80730:	683b      	ldr	r3, [r7, #0]
   80732:	3601      	adds	r6, #1
   80734:	681a      	ldr	r2, [r3, #0]
   80736:	b2f6      	uxtb	r6, r6
   80738:	7912      	ldrb	r2, [r2, #4]
   8073a:	42b2      	cmp	r2, r6
   8073c:	d8cf      	bhi.n	806de <udc_process_setup+0xae>
   8073e:	e78a      	b.n	80656 <udc_process_setup+0x26>
   80740:	f8c8 3000 	str.w	r3, [r8]
   80744:	2000      	movs	r0, #0
   80746:	e8bd 8ff8 	ldmia.w	sp!, {r3, r4, r5, r6, r7, r8, r9, sl, fp, pc}
   8074a:	4c62      	ldr	r4, [pc, #392]	; (808d4 <udc_process_setup+0x2a4>)
   8074c:	7823      	ldrb	r3, [r4, #0]
   8074e:	2b00      	cmp	r3, #0
   80750:	d081      	beq.n	80656 <udc_process_setup+0x26>
   80752:	4f61      	ldr	r7, [pc, #388]	; (808d8 <udc_process_setup+0x2a8>)
   80754:	792e      	ldrb	r6, [r5, #4]
   80756:	6838      	ldr	r0, [r7, #0]
   80758:	6803      	ldr	r3, [r0, #0]
   8075a:	791a      	ldrb	r2, [r3, #4]
   8075c:	42b2      	cmp	r2, r6
   8075e:	f67f af7a 	bls.w	80656 <udc_process_setup+0x26>
   80762:	f8df 8178 	ldr.w	r8, [pc, #376]	; 808dc <udc_process_setup+0x2ac>
   80766:	f8c8 3000 	str.w	r3, [r8]
   8076a:	8859      	ldrh	r1, [r3, #2]
   8076c:	4419      	add	r1, r3
   8076e:	428b      	cmp	r3, r1
   80770:	d304      	bcc.n	8077c <udc_process_setup+0x14c>
   80772:	e770      	b.n	80656 <udc_process_setup+0x26>
   80774:	781a      	ldrb	r2, [r3, #0]
   80776:	4413      	add	r3, r2
   80778:	4299      	cmp	r1, r3
   8077a:	d9e1      	bls.n	80740 <udc_process_setup+0x110>
   8077c:	785a      	ldrb	r2, [r3, #1]
   8077e:	2a04      	cmp	r2, #4
   80780:	d1f8      	bne.n	80774 <udc_process_setup+0x144>
   80782:	789a      	ldrb	r2, [r3, #2]
   80784:	42b2      	cmp	r2, r6
   80786:	d1f5      	bne.n	80774 <udc_process_setup+0x144>
   80788:	78da      	ldrb	r2, [r3, #3]
   8078a:	2a00      	cmp	r2, #0
   8078c:	d1f2      	bne.n	80774 <udc_process_setup+0x144>
   8078e:	6842      	ldr	r2, [r0, #4]
   80790:	f8c8 3000 	str.w	r3, [r8]
   80794:	f852 9026 	ldr.w	r9, [r2, r6, lsl #2]
   80798:	f8df a140 	ldr.w	sl, [pc, #320]	; 808dc <udc_process_setup+0x2ac>
   8079c:	f8d9 300c 	ldr.w	r3, [r9, #12]
   807a0:	4798      	blx	r3
   807a2:	7823      	ldrb	r3, [r4, #0]
   807a4:	2b00      	cmp	r3, #0
   807a6:	f040 815c 	bne.w	80a62 <udc_process_setup+0x432>
   807aa:	782b      	ldrb	r3, [r5, #0]
   807ac:	f003 031f 	and.w	r3, r3, #31
   807b0:	e74f      	b.n	80652 <udc_process_setup+0x22>
   807b2:	2b01      	cmp	r3, #1
   807b4:	d02b      	beq.n	8080e <udc_process_setup+0x1de>
   807b6:	2b02      	cmp	r3, #2
   807b8:	f47f af49 	bne.w	8064e <udc_process_setup+0x1e>
   807bc:	786b      	ldrb	r3, [r5, #1]
   807be:	2b01      	cmp	r3, #1
   807c0:	f000 80b9 	beq.w	80936 <udc_process_setup+0x306>
   807c4:	2b03      	cmp	r3, #3
   807c6:	f47f af7e 	bne.w	806c6 <udc_process_setup+0x96>
   807ca:	88eb      	ldrh	r3, [r5, #6]
   807cc:	2b00      	cmp	r3, #0
   807ce:	f47f af7a 	bne.w	806c6 <udc_process_setup+0x96>
   807d2:	886b      	ldrh	r3, [r5, #2]
   807d4:	2b00      	cmp	r3, #0
   807d6:	f47f af76 	bne.w	806c6 <udc_process_setup+0x96>
   807da:	7928      	ldrb	r0, [r5, #4]
   807dc:	4b40      	ldr	r3, [pc, #256]	; (808e0 <udc_process_setup+0x2b0>)
   807de:	4798      	blx	r3
   807e0:	7928      	ldrb	r0, [r5, #4]
   807e2:	4b40      	ldr	r3, [pc, #256]	; (808e4 <udc_process_setup+0x2b4>)
   807e4:	4798      	blx	r3
   807e6:	2800      	cmp	r0, #0
   807e8:	f47f af6a 	bne.w	806c0 <udc_process_setup+0x90>
   807ec:	e00d      	b.n	8080a <udc_process_setup+0x1da>
   807ee:	88eb      	ldrh	r3, [r5, #6]
   807f0:	2b00      	cmp	r3, #0
   807f2:	f47f af30 	bne.w	80656 <udc_process_setup+0x26>
   807f6:	4b3c      	ldr	r3, [pc, #240]	; (808e8 <udc_process_setup+0x2b8>)
   807f8:	4798      	blx	r3
   807fa:	b130      	cbz	r0, 8080a <udc_process_setup+0x1da>
   807fc:	4e3b      	ldr	r6, [pc, #236]	; (808ec <udc_process_setup+0x2bc>)
   807fe:	78aa      	ldrb	r2, [r5, #2]
   80800:	6833      	ldr	r3, [r6, #0]
   80802:	7c5b      	ldrb	r3, [r3, #17]
   80804:	429a      	cmp	r2, r3
   80806:	f340 814f 	ble.w	80aa8 <udc_process_setup+0x478>
   8080a:	782b      	ldrb	r3, [r5, #0]
   8080c:	e71d      	b.n	8064a <udc_process_setup+0x1a>
   8080e:	786b      	ldrb	r3, [r5, #1]
   80810:	2b0b      	cmp	r3, #11
   80812:	d1fa      	bne.n	8080a <udc_process_setup+0x1da>
   80814:	88eb      	ldrh	r3, [r5, #6]
   80816:	4c2f      	ldr	r4, [pc, #188]	; (808d4 <udc_process_setup+0x2a4>)
   80818:	2b00      	cmp	r3, #0
   8081a:	d197      	bne.n	8074c <udc_process_setup+0x11c>
   8081c:	7823      	ldrb	r3, [r4, #0]
   8081e:	2b00      	cmp	r3, #0
   80820:	d094      	beq.n	8074c <udc_process_setup+0x11c>
   80822:	4f2d      	ldr	r7, [pc, #180]	; (808d8 <udc_process_setup+0x2a8>)
   80824:	792e      	ldrb	r6, [r5, #4]
   80826:	683b      	ldr	r3, [r7, #0]
   80828:	f8b5 9002 	ldrh.w	r9, [r5, #2]
   8082c:	681b      	ldr	r3, [r3, #0]
   8082e:	791a      	ldrb	r2, [r3, #4]
   80830:	42b2      	cmp	r2, r6
   80832:	d98b      	bls.n	8074c <udc_process_setup+0x11c>
   80834:	f8df 80a4 	ldr.w	r8, [pc, #164]	; 808dc <udc_process_setup+0x2ac>
   80838:	f8c8 3000 	str.w	r3, [r8]
   8083c:	885a      	ldrh	r2, [r3, #2]
   8083e:	441a      	add	r2, r3
   80840:	4293      	cmp	r3, r2
   80842:	d305      	bcc.n	80850 <udc_process_setup+0x220>
   80844:	e782      	b.n	8074c <udc_process_setup+0x11c>
   80846:	7819      	ldrb	r1, [r3, #0]
   80848:	440b      	add	r3, r1
   8084a:	429a      	cmp	r2, r3
   8084c:	f240 81a1 	bls.w	80b92 <udc_process_setup+0x562>
   80850:	7859      	ldrb	r1, [r3, #1]
   80852:	2904      	cmp	r1, #4
   80854:	d1f7      	bne.n	80846 <udc_process_setup+0x216>
   80856:	7899      	ldrb	r1, [r3, #2]
   80858:	42b1      	cmp	r1, r6
   8085a:	d1f4      	bne.n	80846 <udc_process_setup+0x216>
   8085c:	78d9      	ldrb	r1, [r3, #3]
   8085e:	2900      	cmp	r1, #0
   80860:	d1f1      	bne.n	80846 <udc_process_setup+0x216>
   80862:	4630      	mov	r0, r6
   80864:	4a22      	ldr	r2, [pc, #136]	; (808f0 <udc_process_setup+0x2c0>)
   80866:	f8c8 3000 	str.w	r3, [r8]
   8086a:	f8df 8070 	ldr.w	r8, [pc, #112]	; 808dc <udc_process_setup+0x2ac>
   8086e:	4790      	blx	r2
   80870:	2800      	cmp	r0, #0
   80872:	d0ca      	beq.n	8080a <udc_process_setup+0x1da>
   80874:	7823      	ldrb	r3, [r4, #0]
   80876:	2b00      	cmp	r3, #0
   80878:	d0c7      	beq.n	8080a <udc_process_setup+0x1da>
   8087a:	fa5f f189 	uxtb.w	r1, r9
   8087e:	4630      	mov	r0, r6
   80880:	4b1c      	ldr	r3, [pc, #112]	; (808f4 <udc_process_setup+0x2c4>)
   80882:	4798      	blx	r3
   80884:	2800      	cmp	r0, #0
   80886:	d0c0      	beq.n	8080a <udc_process_setup+0x1da>
   80888:	f8d8 4000 	ldr.w	r4, [r8]
   8088c:	f8df 8068 	ldr.w	r8, [pc, #104]	; 808f8 <udc_process_setup+0x2c8>
   80890:	6839      	ldr	r1, [r7, #0]
   80892:	7823      	ldrb	r3, [r4, #0]
   80894:	680a      	ldr	r2, [r1, #0]
   80896:	441c      	add	r4, r3
   80898:	8853      	ldrh	r3, [r2, #2]
   8089a:	441a      	add	r2, r3
   8089c:	42a2      	cmp	r2, r4
   8089e:	d807      	bhi.n	808b0 <udc_process_setup+0x280>
   808a0:	e009      	b.n	808b6 <udc_process_setup+0x286>
   808a2:	2b05      	cmp	r3, #5
   808a4:	f000 816d 	beq.w	80b82 <udc_process_setup+0x552>
   808a8:	7823      	ldrb	r3, [r4, #0]
   808aa:	441c      	add	r4, r3
   808ac:	42a2      	cmp	r2, r4
   808ae:	d902      	bls.n	808b6 <udc_process_setup+0x286>
   808b0:	7863      	ldrb	r3, [r4, #1]
   808b2:	2b04      	cmp	r3, #4
   808b4:	d1f5      	bne.n	808a2 <udc_process_setup+0x272>
   808b6:	684b      	ldr	r3, [r1, #4]
   808b8:	f853 3026 	ldr.w	r3, [r3, r6, lsl #2]
   808bc:	681b      	ldr	r3, [r3, #0]
   808be:	4798      	blx	r3
   808c0:	2800      	cmp	r0, #0
   808c2:	f47f aefd 	bne.w	806c0 <udc_process_setup+0x90>
   808c6:	e7a0      	b.n	8080a <udc_process_setup+0x1da>
   808c8:	200707f0 	.word	0x200707f0
   808cc:	200706ce 	.word	0x200706ce
   808d0:	00081a15 	.word	0x00081a15
   808d4:	200706d0 	.word	0x200706d0
   808d8:	200706c4 	.word	0x200706c4
   808dc:	200706d4 	.word	0x200706d4
   808e0:	00081f19 	.word	0x00081f19
   808e4:	00081abd 	.word	0x00081abd
   808e8:	00081a05 	.word	0x00081a05
   808ec:	200701d4 	.word	0x200701d4
   808f0:	000804b5 	.word	0x000804b5
   808f4:	00080465 	.word	0x00080465
   808f8:	00081d55 	.word	0x00081d55
   808fc:	2b01      	cmp	r3, #1
   808fe:	d029      	beq.n	80954 <udc_process_setup+0x324>
   80900:	2b02      	cmp	r3, #2
   80902:	f47f aea4 	bne.w	8064e <udc_process_setup+0x1e>
   80906:	786b      	ldrb	r3, [r5, #1]
   80908:	2b00      	cmp	r3, #0
   8090a:	f47f aedc 	bne.w	806c6 <udc_process_setup+0x96>
   8090e:	2c02      	cmp	r4, #2
   80910:	f47f aed9 	bne.w	806c6 <udc_process_setup+0x96>
   80914:	7928      	ldrb	r0, [r5, #4]
   80916:	4ba0      	ldr	r3, [pc, #640]	; (80b98 <udc_process_setup+0x568>)
   80918:	4798      	blx	r3
   8091a:	4ba0      	ldr	r3, [pc, #640]	; (80b9c <udc_process_setup+0x56c>)
   8091c:	4621      	mov	r1, r4
   8091e:	8018      	strh	r0, [r3, #0]
   80920:	4a9f      	ldr	r2, [pc, #636]	; (80ba0 <udc_process_setup+0x570>)
   80922:	4618      	mov	r0, r3
   80924:	4790      	blx	r2
   80926:	e6cb      	b.n	806c0 <udc_process_setup+0x90>
   80928:	88eb      	ldrh	r3, [r5, #6]
   8092a:	2b00      	cmp	r3, #0
   8092c:	f47f ae93 	bne.w	80656 <udc_process_setup+0x26>
   80930:	4b9c      	ldr	r3, [pc, #624]	; (80ba4 <udc_process_setup+0x574>)
   80932:	612b      	str	r3, [r5, #16]
   80934:	e6c4      	b.n	806c0 <udc_process_setup+0x90>
   80936:	88eb      	ldrh	r3, [r5, #6]
   80938:	2b00      	cmp	r3, #0
   8093a:	f47f aec4 	bne.w	806c6 <udc_process_setup+0x96>
   8093e:	886b      	ldrh	r3, [r5, #2]
   80940:	2b00      	cmp	r3, #0
   80942:	f47f aec0 	bne.w	806c6 <udc_process_setup+0x96>
   80946:	7928      	ldrb	r0, [r5, #4]
   80948:	4b97      	ldr	r3, [pc, #604]	; (80ba8 <udc_process_setup+0x578>)
   8094a:	4798      	blx	r3
   8094c:	2800      	cmp	r0, #0
   8094e:	f47f aeb7 	bne.w	806c0 <udc_process_setup+0x90>
   80952:	e75a      	b.n	8080a <udc_process_setup+0x1da>
   80954:	786b      	ldrb	r3, [r5, #1]
   80956:	2b0a      	cmp	r3, #10
   80958:	f47f af57 	bne.w	8080a <udc_process_setup+0x1da>
   8095c:	2c01      	cmp	r4, #1
   8095e:	4c93      	ldr	r4, [pc, #588]	; (80bac <udc_process_setup+0x57c>)
   80960:	f47f aef4 	bne.w	8074c <udc_process_setup+0x11c>
   80964:	7823      	ldrb	r3, [r4, #0]
   80966:	2b00      	cmp	r3, #0
   80968:	f43f aef0 	beq.w	8074c <udc_process_setup+0x11c>
   8096c:	4b90      	ldr	r3, [pc, #576]	; (80bb0 <udc_process_setup+0x580>)
   8096e:	792e      	ldrb	r6, [r5, #4]
   80970:	681f      	ldr	r7, [r3, #0]
   80972:	683b      	ldr	r3, [r7, #0]
   80974:	791b      	ldrb	r3, [r3, #4]
   80976:	42b3      	cmp	r3, r6
   80978:	f67f aee8 	bls.w	8074c <udc_process_setup+0x11c>
   8097c:	4630      	mov	r0, r6
   8097e:	4b8d      	ldr	r3, [pc, #564]	; (80bb4 <udc_process_setup+0x584>)
   80980:	4798      	blx	r3
   80982:	2800      	cmp	r0, #0
   80984:	f43f af41 	beq.w	8080a <udc_process_setup+0x1da>
   80988:	687b      	ldr	r3, [r7, #4]
   8098a:	f853 3026 	ldr.w	r3, [r3, r6, lsl #2]
   8098e:	68db      	ldr	r3, [r3, #12]
   80990:	4798      	blx	r3
   80992:	4b89      	ldr	r3, [pc, #548]	; (80bb8 <udc_process_setup+0x588>)
   80994:	2101      	movs	r1, #1
   80996:	7018      	strb	r0, [r3, #0]
   80998:	4a81      	ldr	r2, [pc, #516]	; (80ba0 <udc_process_setup+0x570>)
   8099a:	4618      	mov	r0, r3
   8099c:	4790      	blx	r2
   8099e:	e68f      	b.n	806c0 <udc_process_setup+0x90>
   809a0:	886b      	ldrh	r3, [r5, #2]
   809a2:	0a1a      	lsrs	r2, r3, #8
   809a4:	3a01      	subs	r2, #1
   809a6:	2a0e      	cmp	r2, #14
   809a8:	f63f ae55 	bhi.w	80656 <udc_process_setup+0x26>
   809ac:	a101      	add	r1, pc, #4	; (adr r1, 809b4 <udc_process_setup+0x384>)
   809ae:	f851 f022 	ldr.w	pc, [r1, r2, lsl #2]
   809b2:	bf00      	nop
   809b4:	00080a47 	.word	0x00080a47
   809b8:	00080a25 	.word	0x00080a25
   809bc:	00080a11 	.word	0x00080a11
   809c0:	00080657 	.word	0x00080657
   809c4:	00080657 	.word	0x00080657
   809c8:	00080657 	.word	0x00080657
   809cc:	00080657 	.word	0x00080657
   809d0:	00080657 	.word	0x00080657
   809d4:	00080657 	.word	0x00080657
   809d8:	00080657 	.word	0x00080657
   809dc:	00080657 	.word	0x00080657
   809e0:	00080657 	.word	0x00080657
   809e4:	00080657 	.word	0x00080657
   809e8:	00080657 	.word	0x00080657
   809ec:	000809f1 	.word	0x000809f1
   809f0:	4b72      	ldr	r3, [pc, #456]	; (80bbc <udc_process_setup+0x58c>)
   809f2:	6898      	ldr	r0, [r3, #8]
   809f4:	2800      	cmp	r0, #0
   809f6:	f43f ae2e 	beq.w	80656 <udc_process_setup+0x26>
   809fa:	8841      	ldrh	r1, [r0, #2]
   809fc:	4b68      	ldr	r3, [pc, #416]	; (80ba0 <udc_process_setup+0x570>)
   809fe:	4798      	blx	r3
   80a00:	88eb      	ldrh	r3, [r5, #6]
   80a02:	89a9      	ldrh	r1, [r5, #12]
   80a04:	4a6e      	ldr	r2, [pc, #440]	; (80bc0 <udc_process_setup+0x590>)
   80a06:	4299      	cmp	r1, r3
   80a08:	f67f ae5a 	bls.w	806c0 <udc_process_setup+0x90>
   80a0c:	8193      	strh	r3, [r2, #12]
   80a0e:	e657      	b.n	806c0 <udc_process_setup+0x90>
   80a10:	b2db      	uxtb	r3, r3
   80a12:	2b03      	cmp	r3, #3
   80a14:	f63f aef9 	bhi.w	8080a <udc_process_setup+0x1da>
   80a18:	e8df f013 	tbh	[pc, r3, lsl #1]
   80a1c:	0118011d 	.word	0x0118011d
   80a20:	00da010f 	.word	0x00da010f
   80a24:	4a65      	ldr	r2, [pc, #404]	; (80bbc <udc_process_setup+0x58c>)
   80a26:	b2db      	uxtb	r3, r3
   80a28:	6811      	ldr	r1, [r2, #0]
   80a2a:	7c49      	ldrb	r1, [r1, #17]
   80a2c:	4299      	cmp	r1, r3
   80a2e:	f67f ae12 	bls.w	80656 <udc_process_setup+0x26>
   80a32:	6851      	ldr	r1, [r2, #4]
   80a34:	4a5a      	ldr	r2, [pc, #360]	; (80ba0 <udc_process_setup+0x570>)
   80a36:	f851 0033 	ldr.w	r0, [r1, r3, lsl #3]
   80a3a:	8841      	ldrh	r1, [r0, #2]
   80a3c:	4790      	blx	r2
   80a3e:	68ab      	ldr	r3, [r5, #8]
   80a40:	2202      	movs	r2, #2
   80a42:	705a      	strb	r2, [r3, #1]
   80a44:	e7dc      	b.n	80a00 <udc_process_setup+0x3d0>
   80a46:	4a5d      	ldr	r2, [pc, #372]	; (80bbc <udc_process_setup+0x58c>)
   80a48:	4b55      	ldr	r3, [pc, #340]	; (80ba0 <udc_process_setup+0x570>)
   80a4a:	6810      	ldr	r0, [r2, #0]
   80a4c:	7801      	ldrb	r1, [r0, #0]
   80a4e:	4798      	blx	r3
   80a50:	e7d6      	b.n	80a00 <udc_process_setup+0x3d0>
   80a52:	2c01      	cmp	r4, #1
   80a54:	f47f adff 	bne.w	80656 <udc_process_setup+0x26>
   80a58:	4621      	mov	r1, r4
   80a5a:	4854      	ldr	r0, [pc, #336]	; (80bac <udc_process_setup+0x57c>)
   80a5c:	4b50      	ldr	r3, [pc, #320]	; (80ba0 <udc_process_setup+0x570>)
   80a5e:	4798      	blx	r3
   80a60:	e62e      	b.n	806c0 <udc_process_setup+0x90>
   80a62:	683b      	ldr	r3, [r7, #0]
   80a64:	681b      	ldr	r3, [r3, #0]
   80a66:	791a      	ldrb	r2, [r3, #4]
   80a68:	42b2      	cmp	r2, r6
   80a6a:	f67f ae9e 	bls.w	807aa <udc_process_setup+0x17a>
   80a6e:	f8ca 3000 	str.w	r3, [sl]
   80a72:	885a      	ldrh	r2, [r3, #2]
   80a74:	441a      	add	r2, r3
   80a76:	4293      	cmp	r3, r2
   80a78:	d304      	bcc.n	80a84 <udc_process_setup+0x454>
   80a7a:	e696      	b.n	807aa <udc_process_setup+0x17a>
   80a7c:	7819      	ldrb	r1, [r3, #0]
   80a7e:	440b      	add	r3, r1
   80a80:	429a      	cmp	r2, r3
   80a82:	d978      	bls.n	80b76 <udc_process_setup+0x546>
   80a84:	7859      	ldrb	r1, [r3, #1]
   80a86:	2904      	cmp	r1, #4
   80a88:	d1f8      	bne.n	80a7c <udc_process_setup+0x44c>
   80a8a:	7899      	ldrb	r1, [r3, #2]
   80a8c:	42b1      	cmp	r1, r6
   80a8e:	d1f5      	bne.n	80a7c <udc_process_setup+0x44c>
   80a90:	78d9      	ldrb	r1, [r3, #3]
   80a92:	4281      	cmp	r1, r0
   80a94:	d1f2      	bne.n	80a7c <udc_process_setup+0x44c>
   80a96:	f8d9 2008 	ldr.w	r2, [r9, #8]
   80a9a:	f8c8 3000 	str.w	r3, [r8]
   80a9e:	4790      	blx	r2
   80aa0:	2800      	cmp	r0, #0
   80aa2:	f47f ae0d 	bne.w	806c0 <udc_process_setup+0x90>
   80aa6:	e680      	b.n	807aa <udc_process_setup+0x17a>
   80aa8:	4b46      	ldr	r3, [pc, #280]	; (80bc4 <udc_process_setup+0x594>)
   80aaa:	4798      	blx	r3
   80aac:	4c3f      	ldr	r4, [pc, #252]	; (80bac <udc_process_setup+0x57c>)
   80aae:	78ab      	ldrb	r3, [r5, #2]
   80ab0:	7023      	strb	r3, [r4, #0]
   80ab2:	2b00      	cmp	r3, #0
   80ab4:	f43f ae04 	beq.w	806c0 <udc_process_setup+0x90>
   80ab8:	6871      	ldr	r1, [r6, #4]
   80aba:	f103 5300 	add.w	r3, r3, #536870912	; 0x20000000
   80abe:	3b01      	subs	r3, #1
   80ac0:	f851 6033 	ldr.w	r6, [r1, r3, lsl #3]
   80ac4:	4f3a      	ldr	r7, [pc, #232]	; (80bb0 <udc_process_setup+0x580>)
   80ac6:	7932      	ldrb	r2, [r6, #4]
   80ac8:	eb01 03c3 	add.w	r3, r1, r3, lsl #3
   80acc:	603b      	str	r3, [r7, #0]
   80ace:	2a00      	cmp	r2, #0
   80ad0:	f43f adf6 	beq.w	806c0 <udc_process_setup+0x90>
   80ad4:	f8df b0f0 	ldr.w	fp, [pc, #240]	; 80bc8 <udc_process_setup+0x598>
   80ad8:	f8df a0f0 	ldr.w	sl, [pc, #240]	; 80bcc <udc_process_setup+0x59c>
   80adc:	f04f 0900 	mov.w	r9, #0
   80ae0:	454a      	cmp	r2, r9
   80ae2:	f67f ae92 	bls.w	8080a <udc_process_setup+0x1da>
   80ae6:	f8cb 6000 	str.w	r6, [fp]
   80aea:	8873      	ldrh	r3, [r6, #2]
   80aec:	f8df 80d8 	ldr.w	r8, [pc, #216]	; 80bc8 <udc_process_setup+0x598>
   80af0:	4433      	add	r3, r6
   80af2:	42b3      	cmp	r3, r6
   80af4:	d804      	bhi.n	80b00 <udc_process_setup+0x4d0>
   80af6:	e688      	b.n	8080a <udc_process_setup+0x1da>
   80af8:	7832      	ldrb	r2, [r6, #0]
   80afa:	4416      	add	r6, r2
   80afc:	42b3      	cmp	r3, r6
   80afe:	d93d      	bls.n	80b7c <udc_process_setup+0x54c>
   80b00:	7872      	ldrb	r2, [r6, #1]
   80b02:	2a04      	cmp	r2, #4
   80b04:	d1f8      	bne.n	80af8 <udc_process_setup+0x4c8>
   80b06:	78b2      	ldrb	r2, [r6, #2]
   80b08:	454a      	cmp	r2, r9
   80b0a:	d1f5      	bne.n	80af8 <udc_process_setup+0x4c8>
   80b0c:	78f2      	ldrb	r2, [r6, #3]
   80b0e:	2a00      	cmp	r2, #0
   80b10:	d1f2      	bne.n	80af8 <udc_process_setup+0x4c8>
   80b12:	f8cb 6000 	str.w	r6, [fp]
   80b16:	6839      	ldr	r1, [r7, #0]
   80b18:	7833      	ldrb	r3, [r6, #0]
   80b1a:	680a      	ldr	r2, [r1, #0]
   80b1c:	441e      	add	r6, r3
   80b1e:	8853      	ldrh	r3, [r2, #2]
   80b20:	441a      	add	r2, r3
   80b22:	42b2      	cmp	r2, r6
   80b24:	d806      	bhi.n	80b34 <udc_process_setup+0x504>
   80b26:	e008      	b.n	80b3a <udc_process_setup+0x50a>
   80b28:	2b05      	cmp	r3, #5
   80b2a:	d01d      	beq.n	80b68 <udc_process_setup+0x538>
   80b2c:	7833      	ldrb	r3, [r6, #0]
   80b2e:	441e      	add	r6, r3
   80b30:	42b2      	cmp	r2, r6
   80b32:	d902      	bls.n	80b3a <udc_process_setup+0x50a>
   80b34:	7873      	ldrb	r3, [r6, #1]
   80b36:	2b04      	cmp	r3, #4
   80b38:	d1f6      	bne.n	80b28 <udc_process_setup+0x4f8>
   80b3a:	684b      	ldr	r3, [r1, #4]
   80b3c:	f853 3029 	ldr.w	r3, [r3, r9, lsl #2]
   80b40:	681b      	ldr	r3, [r3, #0]
   80b42:	4798      	blx	r3
   80b44:	2800      	cmp	r0, #0
   80b46:	f43f ae60 	beq.w	8080a <udc_process_setup+0x1da>
   80b4a:	683b      	ldr	r3, [r7, #0]
   80b4c:	f109 0901 	add.w	r9, r9, #1
   80b50:	681e      	ldr	r6, [r3, #0]
   80b52:	fa5f f989 	uxtb.w	r9, r9
   80b56:	7932      	ldrb	r2, [r6, #4]
   80b58:	4591      	cmp	r9, r2
   80b5a:	f4bf adb1 	bcs.w	806c0 <udc_process_setup+0x90>
   80b5e:	7823      	ldrb	r3, [r4, #0]
   80b60:	2b00      	cmp	r3, #0
   80b62:	f43f ae52 	beq.w	8080a <udc_process_setup+0x1da>
   80b66:	e7bb      	b.n	80ae0 <udc_process_setup+0x4b0>
   80b68:	78b0      	ldrb	r0, [r6, #2]
   80b6a:	78f1      	ldrb	r1, [r6, #3]
   80b6c:	88b2      	ldrh	r2, [r6, #4]
   80b6e:	47d0      	blx	sl
   80b70:	2800      	cmp	r0, #0
   80b72:	d1d0      	bne.n	80b16 <udc_process_setup+0x4e6>
   80b74:	e649      	b.n	8080a <udc_process_setup+0x1da>
   80b76:	f8c8 3000 	str.w	r3, [r8]
   80b7a:	e616      	b.n	807aa <udc_process_setup+0x17a>
   80b7c:	f8c8 6000 	str.w	r6, [r8]
   80b80:	e643      	b.n	8080a <udc_process_setup+0x1da>
   80b82:	78a0      	ldrb	r0, [r4, #2]
   80b84:	78e1      	ldrb	r1, [r4, #3]
   80b86:	88a2      	ldrh	r2, [r4, #4]
   80b88:	47c0      	blx	r8
   80b8a:	2800      	cmp	r0, #0
   80b8c:	f47f ae80 	bne.w	80890 <udc_process_setup+0x260>
   80b90:	e63b      	b.n	8080a <udc_process_setup+0x1da>
   80b92:	f8c8 3000 	str.w	r3, [r8]
   80b96:	e5d9      	b.n	8074c <udc_process_setup+0x11c>
   80b98:	00081aa9 	.word	0x00081aa9
   80b9c:	200706c8 	.word	0x200706c8
   80ba0:	00081a15 	.word	0x00081a15
   80ba4:	0008044d 	.word	0x0008044d
   80ba8:	00081b91 	.word	0x00081b91
   80bac:	200706d0 	.word	0x200706d0
   80bb0:	200706c4 	.word	0x200706c4
   80bb4:	00080465 	.word	0x00080465
   80bb8:	200706cc 	.word	0x200706cc
   80bbc:	200701d4 	.word	0x200701d4
   80bc0:	200707f0 	.word	0x200707f0
   80bc4:	00080561 	.word	0x00080561
   80bc8:	200706d4 	.word	0x200706d4
   80bcc:	00081d55 	.word	0x00081d55
   80bd0:	210a      	movs	r1, #10
   80bd2:	460e      	mov	r6, r1
   80bd4:	4b22      	ldr	r3, [pc, #136]	; (80c60 <udc_process_setup+0x630>)
   80bd6:	2204      	movs	r2, #4
   80bd8:	4c22      	ldr	r4, [pc, #136]	; (80c64 <udc_process_setup+0x634>)
   80bda:	7818      	ldrb	r0, [r3, #0]
   80bdc:	8060      	strh	r0, [r4, #2]
   80bde:	78d8      	ldrb	r0, [r3, #3]
   80be0:	f893 e001 	ldrb.w	lr, [r3, #1]
   80be4:	789f      	ldrb	r7, [r3, #2]
   80be6:	2a04      	cmp	r2, #4
   80be8:	8120      	strh	r0, [r4, #8]
   80bea:	f8a4 e004 	strh.w	lr, [r4, #4]
   80bee:	80e7      	strh	r7, [r4, #6]
   80bf0:	481c      	ldr	r0, [pc, #112]	; (80c64 <udc_process_setup+0x634>)
   80bf2:	d01d      	beq.n	80c30 <udc_process_setup+0x600>
   80bf4:	791f      	ldrb	r7, [r3, #4]
   80bf6:	2a05      	cmp	r2, #5
   80bf8:	8147      	strh	r7, [r0, #10]
   80bfa:	d019      	beq.n	80c30 <udc_process_setup+0x600>
   80bfc:	795f      	ldrb	r7, [r3, #5]
   80bfe:	2a06      	cmp	r2, #6
   80c00:	8187      	strh	r7, [r0, #12]
   80c02:	d015      	beq.n	80c30 <udc_process_setup+0x600>
   80c04:	799f      	ldrb	r7, [r3, #6]
   80c06:	2a07      	cmp	r2, #7
   80c08:	81c7      	strh	r7, [r0, #14]
   80c0a:	d011      	beq.n	80c30 <udc_process_setup+0x600>
   80c0c:	79df      	ldrb	r7, [r3, #7]
   80c0e:	2a08      	cmp	r2, #8
   80c10:	8207      	strh	r7, [r0, #16]
   80c12:	d00d      	beq.n	80c30 <udc_process_setup+0x600>
   80c14:	7a1f      	ldrb	r7, [r3, #8]
   80c16:	2a09      	cmp	r2, #9
   80c18:	8247      	strh	r7, [r0, #18]
   80c1a:	d009      	beq.n	80c30 <udc_process_setup+0x600>
   80c1c:	7a5f      	ldrb	r7, [r3, #9]
   80c1e:	2a0a      	cmp	r2, #10
   80c20:	8287      	strh	r7, [r0, #20]
   80c22:	d005      	beq.n	80c30 <udc_process_setup+0x600>
   80c24:	7a9f      	ldrb	r7, [r3, #10]
   80c26:	2a0c      	cmp	r2, #12
   80c28:	82c7      	strh	r7, [r0, #22]
   80c2a:	d101      	bne.n	80c30 <udc_process_setup+0x600>
   80c2c:	7adb      	ldrb	r3, [r3, #11]
   80c2e:	8303      	strh	r3, [r0, #24]
   80c30:	480c      	ldr	r0, [pc, #48]	; (80c64 <udc_process_setup+0x634>)
   80c32:	4b0d      	ldr	r3, [pc, #52]	; (80c68 <udc_process_setup+0x638>)
   80c34:	7026      	strb	r6, [r4, #0]
   80c36:	4798      	blx	r3
   80c38:	e6e2      	b.n	80a00 <udc_process_setup+0x3d0>
   80c3a:	4a0c      	ldr	r2, [pc, #48]	; (80c6c <udc_process_setup+0x63c>)
   80c3c:	4c09      	ldr	r4, [pc, #36]	; (80c64 <udc_process_setup+0x634>)
   80c3e:	7810      	ldrb	r0, [r2, #0]
   80c40:	2114      	movs	r1, #20
   80c42:	4613      	mov	r3, r2
   80c44:	460e      	mov	r6, r1
   80c46:	2209      	movs	r2, #9
   80c48:	8060      	strh	r0, [r4, #2]
   80c4a:	e7c8      	b.n	80bde <udc_process_setup+0x5ae>
   80c4c:	211a      	movs	r1, #26
   80c4e:	460e      	mov	r6, r1
   80c50:	4b07      	ldr	r3, [pc, #28]	; (80c70 <udc_process_setup+0x640>)
   80c52:	220c      	movs	r2, #12
   80c54:	e7c0      	b.n	80bd8 <udc_process_setup+0x5a8>
   80c56:	4807      	ldr	r0, [pc, #28]	; (80c74 <udc_process_setup+0x644>)
   80c58:	2104      	movs	r1, #4
   80c5a:	4b03      	ldr	r3, [pc, #12]	; (80c68 <udc_process_setup+0x638>)
   80c5c:	4798      	blx	r3
   80c5e:	e6cf      	b.n	80a00 <udc_process_setup+0x3d0>
   80c60:	000832f4 	.word	0x000832f4
   80c64:	20070188 	.word	0x20070188
   80c68:	00081a15 	.word	0x00081a15
   80c6c:	2007016c 	.word	0x2007016c
   80c70:	20070178 	.word	0x20070178
   80c74:	200701a4 	.word	0x200701a4

00080c78 <cpu_irq_restore.part.0>:
   80c78:	4b03      	ldr	r3, [pc, #12]	; (80c88 <cpu_irq_restore.part.0+0x10>)
   80c7a:	2201      	movs	r2, #1
   80c7c:	701a      	strb	r2, [r3, #0]
   80c7e:	f3bf 8f5f 	dmb	sy
   80c82:	b662      	cpsie	i
   80c84:	4770      	bx	lr
   80c86:	bf00      	nop
   80c88:	200701f6 	.word	0x200701f6

00080c8c <udd_ctrl_send_zlp_in>:
   80c8c:	4b0d      	ldr	r3, [pc, #52]	; (80cc4 <udd_ctrl_send_zlp_in+0x38>)
   80c8e:	2203      	movs	r2, #3
   80c90:	b470      	push	{r4, r5, r6}
   80c92:	701a      	strb	r2, [r3, #0]
   80c94:	f3ef 8310 	mrs	r3, PRIMASK
   80c98:	b672      	cpsid	i
   80c9a:	f3bf 8f5f 	dmb	sy
   80c9e:	4c0a      	ldr	r4, [pc, #40]	; (80cc8 <udd_ctrl_send_zlp_in+0x3c>)
   80ca0:	490a      	ldr	r1, [pc, #40]	; (80ccc <udd_ctrl_send_zlp_in+0x40>)
   80ca2:	4d0b      	ldr	r5, [pc, #44]	; (80cd0 <udd_ctrl_send_zlp_in+0x44>)
   80ca4:	2201      	movs	r2, #1
   80ca6:	2008      	movs	r0, #8
   80ca8:	2600      	movs	r6, #0
   80caa:	702e      	strb	r6, [r5, #0]
   80cac:	6022      	str	r2, [r4, #0]
   80cae:	600a      	str	r2, [r1, #0]
   80cb0:	6020      	str	r0, [r4, #0]
   80cb2:	6008      	str	r0, [r1, #0]
   80cb4:	b91b      	cbnz	r3, 80cbe <udd_ctrl_send_zlp_in+0x32>
   80cb6:	702a      	strb	r2, [r5, #0]
   80cb8:	f3bf 8f5f 	dmb	sy
   80cbc:	b662      	cpsie	i
   80cbe:	bc70      	pop	{r4, r5, r6}
   80cc0:	4770      	bx	lr
   80cc2:	bf00      	nop
   80cc4:	200706f5 	.word	0x200706f5
   80cc8:	400ac160 	.word	0x400ac160
   80ccc:	400ac1f0 	.word	0x400ac1f0
   80cd0:	200701f6 	.word	0x200701f6

00080cd4 <udd_ctrl_in_sent>:
   80cd4:	e92d 47f0 	stmdb	sp!, {r4, r5, r6, r7, r8, r9, sl, lr}
   80cd8:	f3ef 8310 	mrs	r3, PRIMASK
   80cdc:	b672      	cpsid	i
   80cde:	f3bf 8f5f 	dmb	sy
   80ce2:	4e5b      	ldr	r6, [pc, #364]	; (80e50 <udd_ctrl_in_sent+0x17c>)
   80ce4:	495b      	ldr	r1, [pc, #364]	; (80e54 <udd_ctrl_in_sent+0x180>)
   80ce6:	2000      	movs	r0, #0
   80ce8:	2201      	movs	r2, #1
   80cea:	7030      	strb	r0, [r6, #0]
   80cec:	600a      	str	r2, [r1, #0]
   80cee:	2b00      	cmp	r3, #0
   80cf0:	d051      	beq.n	80d96 <udd_ctrl_in_sent+0xc2>
   80cf2:	f8df 8180 	ldr.w	r8, [pc, #384]	; 80e74 <udd_ctrl_in_sent+0x1a0>
   80cf6:	f898 3000 	ldrb.w	r3, [r8]
   80cfa:	2b03      	cmp	r3, #3
   80cfc:	d055      	beq.n	80daa <udd_ctrl_in_sent+0xd6>
   80cfe:	4f56      	ldr	r7, [pc, #344]	; (80e58 <udd_ctrl_in_sent+0x184>)
   80d00:	4d56      	ldr	r5, [pc, #344]	; (80e5c <udd_ctrl_in_sent+0x188>)
   80d02:	883a      	ldrh	r2, [r7, #0]
   80d04:	89ac      	ldrh	r4, [r5, #12]
   80d06:	1aa4      	subs	r4, r4, r2
   80d08:	b2a4      	uxth	r4, r4
   80d0a:	b36c      	cbz	r4, 80d68 <udd_ctrl_in_sent+0x94>
   80d0c:	f8df 9168 	ldr.w	r9, [pc, #360]	; 80e78 <udd_ctrl_in_sent+0x1a4>
   80d10:	2c07      	cmp	r4, #7
   80d12:	d93e      	bls.n	80d92 <udd_ctrl_in_sent+0xbe>
   80d14:	2300      	movs	r3, #0
   80d16:	2408      	movs	r4, #8
   80d18:	f889 3000 	strb.w	r3, [r9]
   80d1c:	68a9      	ldr	r1, [r5, #8]
   80d1e:	f3ef 8010 	mrs	r0, PRIMASK
   80d22:	fab0 f080 	clz	r0, r0
   80d26:	0940      	lsrs	r0, r0, #5
   80d28:	b672      	cpsid	i
   80d2a:	f3bf 8f5f 	dmb	sy
   80d2e:	2500      	movs	r5, #0
   80d30:	4b4b      	ldr	r3, [pc, #300]	; (80e60 <udd_ctrl_in_sent+0x18c>)
   80d32:	7035      	strb	r5, [r6, #0]
   80d34:	681b      	ldr	r3, [r3, #0]
   80d36:	4d46      	ldr	r5, [pc, #280]	; (80e50 <udd_ctrl_in_sent+0x17c>)
   80d38:	079b      	lsls	r3, r3, #30
   80d3a:	d451      	bmi.n	80de0 <udd_ctrl_in_sent+0x10c>
   80d3c:	b144      	cbz	r4, 80d50 <udd_ctrl_in_sent+0x7c>
   80d3e:	4b49      	ldr	r3, [pc, #292]	; (80e64 <udd_ctrl_in_sent+0x190>)
   80d40:	440a      	add	r2, r1
   80d42:	f812 1b01 	ldrb.w	r1, [r2], #1
   80d46:	f803 1b01 	strb.w	r1, [r3], #1
   80d4a:	b2d9      	uxtb	r1, r3
   80d4c:	42a1      	cmp	r1, r4
   80d4e:	d3f8      	bcc.n	80d42 <udd_ctrl_in_sent+0x6e>
   80d50:	883b      	ldrh	r3, [r7, #0]
   80d52:	4945      	ldr	r1, [pc, #276]	; (80e68 <udd_ctrl_in_sent+0x194>)
   80d54:	4a45      	ldr	r2, [pc, #276]	; (80e6c <udd_ctrl_in_sent+0x198>)
   80d56:	441c      	add	r4, r3
   80d58:	2301      	movs	r3, #1
   80d5a:	803c      	strh	r4, [r7, #0]
   80d5c:	600b      	str	r3, [r1, #0]
   80d5e:	6013      	str	r3, [r2, #0]
   80d60:	2800      	cmp	r0, #0
   80d62:	d161      	bne.n	80e28 <udd_ctrl_in_sent+0x154>
   80d64:	e8bd 87f0 	ldmia.w	sp!, {r4, r5, r6, r7, r8, r9, sl, pc}
   80d68:	4941      	ldr	r1, [pc, #260]	; (80e70 <udd_ctrl_in_sent+0x19c>)
   80d6a:	88e8      	ldrh	r0, [r5, #6]
   80d6c:	880b      	ldrh	r3, [r1, #0]
   80d6e:	4413      	add	r3, r2
   80d70:	b29b      	uxth	r3, r3
   80d72:	4298      	cmp	r0, r3
   80d74:	800b      	strh	r3, [r1, #0]
   80d76:	d039      	beq.n	80dec <udd_ctrl_in_sent+0x118>
   80d78:	f8df 90fc 	ldr.w	r9, [pc, #252]	; 80e78 <udd_ctrl_in_sent+0x1a4>
   80d7c:	f899 a000 	ldrb.w	sl, [r9]
   80d80:	f1ba 0f00 	cmp.w	sl, #0
   80d84:	d132      	bne.n	80dec <udd_ctrl_in_sent+0x118>
   80d86:	696b      	ldr	r3, [r5, #20]
   80d88:	b11b      	cbz	r3, 80d92 <udd_ctrl_in_sent+0xbe>
   80d8a:	4798      	blx	r3
   80d8c:	2800      	cmp	r0, #0
   80d8e:	d15b      	bne.n	80e48 <udd_ctrl_in_sent+0x174>
   80d90:	883a      	ldrh	r2, [r7, #0]
   80d92:	2301      	movs	r3, #1
   80d94:	e7c0      	b.n	80d18 <udd_ctrl_in_sent+0x44>
   80d96:	7032      	strb	r2, [r6, #0]
   80d98:	f3bf 8f5f 	dmb	sy
   80d9c:	b662      	cpsie	i
   80d9e:	f8df 80d4 	ldr.w	r8, [pc, #212]	; 80e74 <udd_ctrl_in_sent+0x1a0>
   80da2:	f898 3000 	ldrb.w	r3, [r8]
   80da6:	2b03      	cmp	r3, #3
   80da8:	d1a9      	bne.n	80cfe <udd_ctrl_in_sent+0x2a>
   80daa:	4d2c      	ldr	r5, [pc, #176]	; (80e5c <udd_ctrl_in_sent+0x188>)
   80dac:	692b      	ldr	r3, [r5, #16]
   80dae:	b103      	cbz	r3, 80db2 <udd_ctrl_in_sent+0xde>
   80db0:	4798      	blx	r3
   80db2:	f3ef 8310 	mrs	r3, PRIMASK
   80db6:	b672      	cpsid	i
   80db8:	f3bf 8f5f 	dmb	sy
   80dbc:	4925      	ldr	r1, [pc, #148]	; (80e54 <udd_ctrl_in_sent+0x180>)
   80dbe:	2000      	movs	r0, #0
   80dc0:	2201      	movs	r2, #1
   80dc2:	7030      	strb	r0, [r6, #0]
   80dc4:	4822      	ldr	r0, [pc, #136]	; (80e50 <udd_ctrl_in_sent+0x17c>)
   80dc6:	600a      	str	r2, [r1, #0]
   80dc8:	b34b      	cbz	r3, 80e1e <udd_ctrl_in_sent+0x14a>
   80dca:	4a27      	ldr	r2, [pc, #156]	; (80e68 <udd_ctrl_in_sent+0x194>)
   80dcc:	2300      	movs	r3, #0
   80dce:	2102      	movs	r1, #2
   80dd0:	6011      	str	r1, [r2, #0]
   80dd2:	612b      	str	r3, [r5, #16]
   80dd4:	616b      	str	r3, [r5, #20]
   80dd6:	81ab      	strh	r3, [r5, #12]
   80dd8:	f888 3000 	strb.w	r3, [r8]
   80ddc:	e8bd 87f0 	ldmia.w	sp!, {r4, r5, r6, r7, r8, r9, sl, pc}
   80de0:	bb40      	cbnz	r0, 80e34 <udd_ctrl_in_sent+0x160>
   80de2:	2304      	movs	r3, #4
   80de4:	f888 3000 	strb.w	r3, [r8]
   80de8:	e8bd 87f0 	ldmia.w	sp!, {r4, r5, r6, r7, r8, r9, sl, pc}
   80dec:	2304      	movs	r3, #4
   80dee:	f888 3000 	strb.w	r3, [r8]
   80df2:	f3ef 8310 	mrs	r3, PRIMASK
   80df6:	b672      	cpsid	i
   80df8:	f3bf 8f5f 	dmb	sy
   80dfc:	481a      	ldr	r0, [pc, #104]	; (80e68 <udd_ctrl_in_sent+0x194>)
   80dfe:	491b      	ldr	r1, [pc, #108]	; (80e6c <udd_ctrl_in_sent+0x198>)
   80e00:	2400      	movs	r4, #0
   80e02:	2210      	movs	r2, #16
   80e04:	7034      	strb	r4, [r6, #0]
   80e06:	6002      	str	r2, [r0, #0]
   80e08:	4c11      	ldr	r4, [pc, #68]	; (80e50 <udd_ctrl_in_sent+0x17c>)
   80e0a:	600a      	str	r2, [r1, #0]
   80e0c:	2b00      	cmp	r3, #0
   80e0e:	d1a9      	bne.n	80d64 <udd_ctrl_in_sent+0x90>
   80e10:	2301      	movs	r3, #1
   80e12:	7023      	strb	r3, [r4, #0]
   80e14:	f3bf 8f5f 	dmb	sy
   80e18:	b662      	cpsie	i
   80e1a:	e8bd 87f0 	ldmia.w	sp!, {r4, r5, r6, r7, r8, r9, sl, pc}
   80e1e:	7002      	strb	r2, [r0, #0]
   80e20:	f3bf 8f5f 	dmb	sy
   80e24:	b662      	cpsie	i
   80e26:	e7d0      	b.n	80dca <udd_ctrl_in_sent+0xf6>
   80e28:	7033      	strb	r3, [r6, #0]
   80e2a:	f3bf 8f5f 	dmb	sy
   80e2e:	b662      	cpsie	i
   80e30:	e8bd 87f0 	ldmia.w	sp!, {r4, r5, r6, r7, r8, r9, sl, pc}
   80e34:	2301      	movs	r3, #1
   80e36:	702b      	strb	r3, [r5, #0]
   80e38:	f3bf 8f5f 	dmb	sy
   80e3c:	b662      	cpsie	i
   80e3e:	2304      	movs	r3, #4
   80e40:	f888 3000 	strb.w	r3, [r8]
   80e44:	e8bd 87f0 	ldmia.w	sp!, {r4, r5, r6, r7, r8, r9, sl, pc}
   80e48:	803c      	strh	r4, [r7, #0]
   80e4a:	4652      	mov	r2, sl
   80e4c:	89ac      	ldrh	r4, [r5, #12]
   80e4e:	e75f      	b.n	80d10 <udd_ctrl_in_sent+0x3c>
   80e50:	200701f6 	.word	0x200701f6
   80e54:	400ac220 	.word	0x400ac220
   80e58:	200706f6 	.word	0x200706f6
   80e5c:	200707f0 	.word	0x200707f0
   80e60:	400ac130 	.word	0x400ac130
   80e64:	20180000 	.word	0x20180000
   80e68:	400ac160 	.word	0x400ac160
   80e6c:	400ac1f0 	.word	0x400ac1f0
   80e70:	200706f2 	.word	0x200706f2
   80e74:	200706f5 	.word	0x200706f5
   80e78:	200706f8 	.word	0x200706f8

00080e7c <udd_ep_trans_done>:
   80e7c:	e92d 47f0 	stmdb	sp!, {r4, r5, r6, r7, r8, r9, sl, lr}
   80e80:	1e41      	subs	r1, r0, #1
   80e82:	004c      	lsls	r4, r1, #1
   80e84:	4a69      	ldr	r2, [pc, #420]	; (8102c <udd_ep_trans_done+0x1b0>)
   80e86:	1863      	adds	r3, r4, r1
   80e88:	eb02 03c3 	add.w	r3, r2, r3, lsl #3
   80e8c:	7d1e      	ldrb	r6, [r3, #20]
   80e8e:	07f5      	lsls	r5, r6, #31
   80e90:	d550      	bpl.n	80f34 <udd_ep_trans_done+0xb8>
   80e92:	68dd      	ldr	r5, [r3, #12]
   80e94:	689b      	ldr	r3, [r3, #8]
   80e96:	429d      	cmp	r5, r3
   80e98:	f000 809a 	beq.w	80fd0 <udd_ep_trans_done+0x154>
   80e9c:	4e64      	ldr	r6, [pc, #400]	; (81030 <udd_ep_trans_done+0x1b4>)
   80e9e:	1b5b      	subs	r3, r3, r5
   80ea0:	46b6      	mov	lr, r6
   80ea2:	f856 7020 	ldr.w	r7, [r6, r0, lsl #2]
   80ea6:	f5b3 3f80 	cmp.w	r3, #65536	; 0x10000
   80eaa:	bf92      	itee	ls
   80eac:	ea4f 4903 	movls.w	r9, r3, lsl #16
   80eb0:	f44f 3380 	movhi.w	r3, #65536	; 0x10000
   80eb4:	f04f 0900 	movhi.w	r9, #0
   80eb8:	ea4f 0880 	mov.w	r8, r0, lsl #2
   80ebc:	05ff      	lsls	r7, r7, #23
   80ebe:	44c6      	add	lr, r8
   80ec0:	d53a      	bpl.n	80f38 <udd_ep_trans_done+0xbc>
   80ec2:	f856 7020 	ldr.w	r7, [r6, r0, lsl #2]
   80ec6:	2608      	movs	r6, #8
   80ec8:	f3c7 1702 	ubfx	r7, r7, #4, #3
   80ecc:	40be      	lsls	r6, r7
   80ece:	3e01      	subs	r6, #1
   80ed0:	4233      	tst	r3, r6
   80ed2:	f040 8089 	bne.w	80fe8 <udd_ep_trans_done+0x16c>
   80ed6:	eb04 0c01 	add.w	ip, r4, r1
   80eda:	eb02 0ccc 	add.w	ip, r2, ip, lsl #3
   80ede:	f8dc 7004 	ldr.w	r7, [ip, #4]
   80ee2:	4e54      	ldr	r6, [pc, #336]	; (81034 <udd_ep_trans_done+0x1b8>)
   80ee4:	ea4f 1a00 	mov.w	sl, r0, lsl #4
   80ee8:	443d      	add	r5, r7
   80eea:	4456      	add	r6, sl
   80eec:	6075      	str	r5, [r6, #4]
   80eee:	f3ef 8510 	mrs	r5, PRIMASK
   80ef2:	fab5 f585 	clz	r5, r5
   80ef6:	096d      	lsrs	r5, r5, #5
   80ef8:	b672      	cpsid	i
   80efa:	f3bf 8f5f 	dmb	sy
   80efe:	4f4e      	ldr	r7, [pc, #312]	; (81038 <udd_ep_trans_done+0x1bc>)
   80f00:	f04f 0a00 	mov.w	sl, #0
   80f04:	f887 a000 	strb.w	sl, [r7]
   80f08:	f8d6 a00c 	ldr.w	sl, [r6, #12]
   80f0c:	f01a 0f10 	tst.w	sl, #16
   80f10:	d11b      	bne.n	80f4a <udd_ep_trans_done+0xce>
   80f12:	f049 0221 	orr.w	r2, r9, #33	; 0x21
   80f16:	60b2      	str	r2, [r6, #8]
   80f18:	f8dc 000c 	ldr.w	r0, [ip, #12]
   80f1c:	f04f 7200 	mov.w	r2, #33554432	; 0x2000000
   80f20:	4e46      	ldr	r6, [pc, #280]	; (8103c <udd_ep_trans_done+0x1c0>)
   80f22:	4418      	add	r0, r3
   80f24:	408a      	lsls	r2, r1
   80f26:	f8cc 3010 	str.w	r3, [ip, #16]
   80f2a:	f8cc 000c 	str.w	r0, [ip, #12]
   80f2e:	61b2      	str	r2, [r6, #24]
   80f30:	2d00      	cmp	r5, #0
   80f32:	d169      	bne.n	81008 <udd_ep_trans_done+0x18c>
   80f34:	e8bd 87f0 	ldmia.w	sp!, {r4, r5, r6, r7, r8, r9, sl, pc}
   80f38:	f856 6020 	ldr.w	r6, [r6, r0, lsl #2]
   80f3c:	f3c6 26c1 	ubfx	r6, r6, #11, #2
   80f40:	2e01      	cmp	r6, #1
   80f42:	d068      	beq.n	81016 <udd_ep_trans_done+0x19a>
   80f44:	f049 0914 	orr.w	r9, r9, #20
   80f48:	e7c5      	b.n	80ed6 <udd_ep_trans_done+0x5a>
   80f4a:	2d00      	cmp	r5, #0
   80f4c:	d156      	bne.n	80ffc <udd_ep_trans_done+0x180>
   80f4e:	1863      	adds	r3, r4, r1
   80f50:	eb02 03c3 	add.w	r3, r2, r3, lsl #3
   80f54:	68dd      	ldr	r5, [r3, #12]
   80f56:	609d      	str	r5, [r3, #8]
   80f58:	f8de 5000 	ldr.w	r5, [lr]
   80f5c:	7d1b      	ldrb	r3, [r3, #20]
   80f5e:	05ee      	lsls	r6, r5, #23
   80f60:	d51a      	bpl.n	80f98 <udd_ep_trans_done+0x11c>
   80f62:	079d      	lsls	r5, r3, #30
   80f64:	d518      	bpl.n	80f98 <udd_ep_trans_done+0x11c>
   80f66:	4936      	ldr	r1, [pc, #216]	; (81040 <udd_ep_trans_done+0x1c4>)
   80f68:	2301      	movs	r3, #1
   80f6a:	4a36      	ldr	r2, [pc, #216]	; (81044 <udd_ep_trans_done+0x1c8>)
   80f6c:	f848 3001 	str.w	r3, [r8, r1]
   80f70:	f858 2002 	ldr.w	r2, [r8, r2]
   80f74:	4934      	ldr	r1, [pc, #208]	; (81048 <udd_ep_trans_done+0x1cc>)
   80f76:	03d2      	lsls	r2, r2, #15
   80f78:	bf48      	it	mi
   80f7a:	4a34      	ldrmi	r2, [pc, #208]	; (8104c <udd_ep_trans_done+0x1d0>)
   80f7c:	f04f 0401 	mov.w	r4, #1
   80f80:	bf48      	it	mi
   80f82:	f848 3002 	strmi.w	r3, [r8, r2]
   80f86:	f44f 5380 	mov.w	r3, #4096	; 0x1000
   80f8a:	4a2c      	ldr	r2, [pc, #176]	; (8103c <udd_ep_trans_done+0x1c0>)
   80f8c:	4083      	lsls	r3, r0
   80f8e:	f848 4001 	str.w	r4, [r8, r1]
   80f92:	6193      	str	r3, [r2, #24]
   80f94:	e8bd 87f0 	ldmia.w	sp!, {r4, r5, r6, r7, r8, r9, sl, pc}
   80f98:	07df      	lsls	r7, r3, #31
   80f9a:	d5cb      	bpl.n	80f34 <udd_ep_trans_done+0xb8>
   80f9c:	1865      	adds	r5, r4, r1
   80f9e:	00ed      	lsls	r5, r5, #3
   80fa0:	1953      	adds	r3, r2, r5
   80fa2:	7d1e      	ldrb	r6, [r3, #20]
   80fa4:	5955      	ldr	r5, [r2, r5]
   80fa6:	f36f 0600 	bfc	r6, #0, #1
   80faa:	751e      	strb	r6, [r3, #20]
   80fac:	2d00      	cmp	r5, #0
   80fae:	d0c1      	beq.n	80f34 <udd_ep_trans_done+0xb8>
   80fb0:	f8de 3000 	ldr.w	r3, [lr]
   80fb4:	4421      	add	r1, r4
   80fb6:	05de      	lsls	r6, r3, #23
   80fb8:	bf48      	it	mi
   80fba:	f040 0080 	orrmi.w	r0, r0, #128	; 0x80
   80fbe:	eb02 02c1 	add.w	r2, r2, r1, lsl #3
   80fc2:	6891      	ldr	r1, [r2, #8]
   80fc4:	462b      	mov	r3, r5
   80fc6:	e8bd 47f0 	ldmia.w	sp!, {r4, r5, r6, r7, r8, r9, sl, lr}
   80fca:	4602      	mov	r2, r0
   80fcc:	2000      	movs	r0, #0
   80fce:	4718      	bx	r3
   80fd0:	4b17      	ldr	r3, [pc, #92]	; (81030 <udd_ep_trans_done+0x1b4>)
   80fd2:	ea4f 0880 	mov.w	r8, r0, lsl #2
   80fd6:	469e      	mov	lr, r3
   80fd8:	f853 3020 	ldr.w	r3, [r3, r0, lsl #2]
   80fdc:	44c6      	add	lr, r8
   80fde:	05dd      	lsls	r5, r3, #23
   80fe0:	d5dc      	bpl.n	80f9c <udd_ep_trans_done+0x120>
   80fe2:	07b3      	lsls	r3, r6, #30
   80fe4:	d4bf      	bmi.n	80f66 <udd_ep_trans_done+0xea>
   80fe6:	e7d9      	b.n	80f9c <udd_ep_trans_done+0x120>
   80fe8:	1866      	adds	r6, r4, r1
   80fea:	eb02 06c6 	add.w	r6, r2, r6, lsl #3
   80fee:	7d37      	ldrb	r7, [r6, #20]
   80ff0:	f049 0908 	orr.w	r9, r9, #8
   80ff4:	f36f 0741 	bfc	r7, #1, #1
   80ff8:	7537      	strb	r7, [r6, #20]
   80ffa:	e76c      	b.n	80ed6 <udd_ep_trans_done+0x5a>
   80ffc:	2301      	movs	r3, #1
   80ffe:	703b      	strb	r3, [r7, #0]
   81000:	f3bf 8f5f 	dmb	sy
   81004:	b662      	cpsie	i
   81006:	e7a2      	b.n	80f4e <udd_ep_trans_done+0xd2>
   81008:	2301      	movs	r3, #1
   8100a:	703b      	strb	r3, [r7, #0]
   8100c:	f3bf 8f5f 	dmb	sy
   81010:	b662      	cpsie	i
   81012:	e8bd 87f0 	ldmia.w	sp!, {r4, r5, r6, r7, r8, r9, sl, pc}
   81016:	f8de 7000 	ldr.w	r7, [lr]
   8101a:	2608      	movs	r6, #8
   8101c:	f3c7 1702 	ubfx	r7, r7, #4, #3
   81020:	40be      	lsls	r6, r7
   81022:	42b3      	cmp	r3, r6
   81024:	f63f af57 	bhi.w	80ed6 <udd_ep_trans_done+0x5a>
   81028:	e78c      	b.n	80f44 <udd_ep_trans_done+0xc8>
   8102a:	bf00      	nop
   8102c:	200706d8 	.word	0x200706d8
   81030:	400ac100 	.word	0x400ac100
   81034:	400ac300 	.word	0x400ac300
   81038:	200701f6 	.word	0x200701f6
   8103c:	400ac000 	.word	0x400ac000
   81040:	400ac160 	.word	0x400ac160
   81044:	400ac130 	.word	0x400ac130
   81048:	400ac1f0 	.word	0x400ac1f0
   8104c:	400ac190 	.word	0x400ac190

00081050 <udd_enable>:
   81050:	b5f8      	push	{r3, r4, r5, r6, r7, lr}
   81052:	f3ef 8510 	mrs	r5, PRIMASK
   81056:	b672      	cpsid	i
   81058:	f3bf 8f5f 	dmb	sy
   8105c:	4c4f      	ldr	r4, [pc, #316]	; (8119c <udd_enable+0x14c>)
   8105e:	2200      	movs	r2, #0
   81060:	4b4f      	ldr	r3, [pc, #316]	; (811a0 <udd_enable+0x150>)
   81062:	2028      	movs	r0, #40	; 0x28
   81064:	7022      	strb	r2, [r4, #0]
   81066:	4798      	blx	r3
   81068:	4b4e      	ldr	r3, [pc, #312]	; (811a4 <udd_enable+0x154>)
   8106a:	4798      	blx	r3
   8106c:	4b4e      	ldr	r3, [pc, #312]	; (811a8 <udd_enable+0x158>)
   8106e:	2150      	movs	r1, #80	; 0x50
   81070:	f44f 7280 	mov.w	r2, #256	; 0x100
   81074:	f883 1328 	strb.w	r1, [r3, #808]	; 0x328
   81078:	f44f 2080 	mov.w	r0, #262144	; 0x40000
   8107c:	605a      	str	r2, [r3, #4]
   8107e:	4b4b      	ldr	r3, [pc, #300]	; (811ac <udd_enable+0x15c>)
   81080:	4798      	blx	r3
   81082:	4b4b      	ldr	r3, [pc, #300]	; (811b0 <udd_enable+0x160>)
   81084:	f8d3 2800 	ldr.w	r2, [r3, #2048]	; 0x800
   81088:	4619      	mov	r1, r3
   8108a:	f022 7280 	bic.w	r2, r2, #16777216	; 0x1000000
   8108e:	f8c3 2800 	str.w	r2, [r3, #2048]	; 0x800
   81092:	f8d3 2800 	ldr.w	r2, [r3, #2048]	; 0x800
   81096:	f042 7200 	orr.w	r2, r2, #33554432	; 0x2000000
   8109a:	f8c3 2800 	str.w	r2, [r3, #2048]	; 0x800
   8109e:	f8d3 2800 	ldr.w	r2, [r3, #2048]	; 0x800
   810a2:	f022 7280 	bic.w	r2, r2, #16777216	; 0x1000000
   810a6:	f8c3 2800 	str.w	r2, [r3, #2048]	; 0x800
   810aa:	f8d3 2800 	ldr.w	r2, [r3, #2048]	; 0x800
   810ae:	f442 5280 	orr.w	r2, r2, #4096	; 0x1000
   810b2:	f8c3 2800 	str.w	r2, [r3, #2048]	; 0x800
   810b6:	f8d3 2800 	ldr.w	r2, [r3, #2048]	; 0x800
   810ba:	f442 4200 	orr.w	r2, r2, #32768	; 0x8000
   810be:	f8c3 2800 	str.w	r2, [r3, #2048]	; 0x800
   810c2:	681a      	ldr	r2, [r3, #0]
   810c4:	f422 5280 	bic.w	r2, r2, #4096	; 0x1000
   810c8:	601a      	str	r2, [r3, #0]
   810ca:	681a      	ldr	r2, [r3, #0]
   810cc:	f442 6240 	orr.w	r2, r2, #3072	; 0xc00
   810d0:	601a      	str	r2, [r3, #0]
   810d2:	f8d3 2800 	ldr.w	r2, [r3, #2048]	; 0x800
   810d6:	f422 4280 	bic.w	r2, r2, #16384	; 0x4000
   810da:	f8c3 2800 	str.w	r2, [r3, #2048]	; 0x800
   810de:	f8d1 3804 	ldr.w	r3, [r1, #2052]	; 0x804
   810e2:	4a33      	ldr	r2, [pc, #204]	; (811b0 <udd_enable+0x160>)
   810e4:	0458      	lsls	r0, r3, #17
   810e6:	d5fa      	bpl.n	810de <udd_enable+0x8e>
   810e8:	4832      	ldr	r0, [pc, #200]	; (811b4 <udd_enable+0x164>)
   810ea:	2102      	movs	r1, #2
   810ec:	7d03      	ldrb	r3, [r0, #20]
   810ee:	f8c2 1808 	str.w	r1, [r2, #2056]	; 0x808
   810f2:	f8d2 6804 	ldr.w	r6, [r2, #2052]	; 0x804
   810f6:	f003 03fe 	and.w	r3, r3, #254	; 0xfe
   810fa:	f36f 0382 	bfc	r3, #2, #1
   810fe:	7503      	strb	r3, [r0, #20]
   81100:	0533      	lsls	r3, r6, #20
   81102:	4b2b      	ldr	r3, [pc, #172]	; (811b0 <udd_enable+0x160>)
   81104:	bf48      	it	mi
   81106:	f8c2 180c 	strmi.w	r1, [r2, #2060]	; 0x80c
   8110a:	f8d3 2800 	ldr.w	r2, [r3, #2048]	; 0x800
   8110e:	492a      	ldr	r1, [pc, #168]	; (811b8 <udd_enable+0x168>)
   81110:	f042 0202 	orr.w	r2, r2, #2
   81114:	f8c3 2800 	str.w	r2, [r3, #2048]	; 0x800
   81118:	f8d3 2800 	ldr.w	r2, [r3, #2048]	; 0x800
   8111c:	f442 4280 	orr.w	r2, r2, #16384	; 0x4000
   81120:	f8c3 2800 	str.w	r2, [r3, #2048]	; 0x800
   81124:	7808      	ldrb	r0, [r1, #0]
   81126:	b9d0      	cbnz	r0, 8115e <udd_enable+0x10e>
   81128:	4a24      	ldr	r2, [pc, #144]	; (811bc <udd_enable+0x16c>)
   8112a:	4f25      	ldr	r7, [pc, #148]	; (811c0 <udd_enable+0x170>)
   8112c:	78d3      	ldrb	r3, [r2, #3]
   8112e:	2601      	movs	r6, #1
   81130:	2bff      	cmp	r3, #255	; 0xff
   81132:	7038      	strb	r0, [r7, #0]
   81134:	700e      	strb	r6, [r1, #0]
   81136:	d011      	beq.n	8115c <udd_enable+0x10c>
   81138:	f3ef 8310 	mrs	r3, PRIMASK
   8113c:	b672      	cpsid	i
   8113e:	f3bf 8f5f 	dmb	sy
   81142:	78d1      	ldrb	r1, [r2, #3]
   81144:	7020      	strb	r0, [r4, #0]
   81146:	3101      	adds	r1, #1
   81148:	70d1      	strb	r1, [r2, #3]
   8114a:	4a14      	ldr	r2, [pc, #80]	; (8119c <udd_enable+0x14c>)
   8114c:	b16b      	cbz	r3, 8116a <udd_enable+0x11a>
   8114e:	b925      	cbnz	r5, 8115a <udd_enable+0x10a>
   81150:	2301      	movs	r3, #1
   81152:	7023      	strb	r3, [r4, #0]
   81154:	f3bf 8f5f 	dmb	sy
   81158:	b662      	cpsie	i
   8115a:	bdf8      	pop	{r3, r4, r5, r6, r7, pc}
   8115c:	e7fe      	b.n	8115c <udd_enable+0x10c>
   8115e:	4e18      	ldr	r6, [pc, #96]	; (811c0 <udd_enable+0x170>)
   81160:	7833      	ldrb	r3, [r6, #0]
   81162:	b93b      	cbnz	r3, 81174 <udd_enable+0x124>
   81164:	2300      	movs	r3, #0
   81166:	7033      	strb	r3, [r6, #0]
   81168:	e7f1      	b.n	8114e <udd_enable+0xfe>
   8116a:	7016      	strb	r6, [r2, #0]
   8116c:	f3bf 8f5f 	dmb	sy
   81170:	b662      	cpsie	i
   81172:	e7ec      	b.n	8114e <udd_enable+0xfe>
   81174:	4a11      	ldr	r2, [pc, #68]	; (811bc <udd_enable+0x16c>)
   81176:	7893      	ldrb	r3, [r2, #2]
   81178:	b173      	cbz	r3, 81198 <udd_enable+0x148>
   8117a:	f3ef 8310 	mrs	r3, PRIMASK
   8117e:	b672      	cpsid	i
   81180:	f3bf 8f5f 	dmb	sy
   81184:	7891      	ldrb	r1, [r2, #2]
   81186:	2000      	movs	r0, #0
   81188:	3901      	subs	r1, #1
   8118a:	7020      	strb	r0, [r4, #0]
   8118c:	7091      	strb	r1, [r2, #2]
   8118e:	2b00      	cmp	r3, #0
   81190:	d1e8      	bne.n	81164 <udd_enable+0x114>
   81192:	4b0c      	ldr	r3, [pc, #48]	; (811c4 <udd_enable+0x174>)
   81194:	4798      	blx	r3
   81196:	e7e5      	b.n	81164 <udd_enable+0x114>
   81198:	e7fe      	b.n	81198 <udd_enable+0x148>
   8119a:	bf00      	nop
   8119c:	200701f6 	.word	0x200701f6
   811a0:	000827b1 	.word	0x000827b1
   811a4:	00082081 	.word	0x00082081
   811a8:	e000e100 	.word	0xe000e100
   811ac:	00082811 	.word	0x00082811
   811b0:	400ac000 	.word	0x400ac000
   811b4:	200706d8 	.word	0x200706d8
   811b8:	200706f0 	.word	0x200706f0
   811bc:	200707e8 	.word	0x200707e8
   811c0:	200706f4 	.word	0x200706f4
   811c4:	00080c79 	.word	0x00080c79

000811c8 <udd_attach>:
   811c8:	b5f0      	push	{r4, r5, r6, r7, lr}
   811ca:	f3ef 8410 	mrs	r4, PRIMASK
   811ce:	b672      	cpsid	i
   811d0:	f3bf 8f5f 	dmb	sy
   811d4:	4d25      	ldr	r5, [pc, #148]	; (8126c <udd_attach+0xa4>)
   811d6:	4826      	ldr	r0, [pc, #152]	; (81270 <udd_attach+0xa8>)
   811d8:	782e      	ldrb	r6, [r5, #0]
   811da:	2300      	movs	r3, #0
   811dc:	7003      	strb	r3, [r0, #0]
   811de:	b376      	cbz	r6, 8123e <udd_attach+0x76>
   811e0:	4b24      	ldr	r3, [pc, #144]	; (81274 <udd_attach+0xac>)
   811e2:	2201      	movs	r2, #1
   811e4:	4619      	mov	r1, r3
   811e6:	702a      	strb	r2, [r5, #0]
   811e8:	f8d3 2800 	ldr.w	r2, [r3, #2048]	; 0x800
   811ec:	f422 4280 	bic.w	r2, r2, #16384	; 0x4000
   811f0:	f8c3 2800 	str.w	r2, [r3, #2048]	; 0x800
   811f4:	f8d1 2804 	ldr.w	r2, [r1, #2052]	; 0x804
   811f8:	4b1e      	ldr	r3, [pc, #120]	; (81274 <udd_attach+0xac>)
   811fa:	0452      	lsls	r2, r2, #17
   811fc:	d5fa      	bpl.n	811f4 <udd_attach+0x2c>
   811fe:	6819      	ldr	r1, [r3, #0]
   81200:	2708      	movs	r7, #8
   81202:	f421 7180 	bic.w	r1, r1, #256	; 0x100
   81206:	2201      	movs	r2, #1
   81208:	2510      	movs	r5, #16
   8120a:	2604      	movs	r6, #4
   8120c:	f04f 0e02 	mov.w	lr, #2
   81210:	6019      	str	r1, [r3, #0]
   81212:	619f      	str	r7, [r3, #24]
   81214:	619a      	str	r2, [r3, #24]
   81216:	619d      	str	r5, [r3, #24]
   81218:	619e      	str	r6, [r3, #24]
   8121a:	609f      	str	r7, [r3, #8]
   8121c:	609e      	str	r6, [r3, #8]
   8121e:	f8c3 e008 	str.w	lr, [r3, #8]
   81222:	60da      	str	r2, [r3, #12]
   81224:	609d      	str	r5, [r3, #8]
   81226:	f8d3 1800 	ldr.w	r1, [r3, #2048]	; 0x800
   8122a:	f441 4180 	orr.w	r1, r1, #16384	; 0x4000
   8122e:	f8c3 1800 	str.w	r1, [r3, #2048]	; 0x800
   81232:	b91c      	cbnz	r4, 8123c <udd_attach+0x74>
   81234:	7002      	strb	r2, [r0, #0]
   81236:	f3bf 8f5f 	dmb	sy
   8123a:	b662      	cpsie	i
   8123c:	bdf0      	pop	{r4, r5, r6, r7, pc}
   8123e:	4a0e      	ldr	r2, [pc, #56]	; (81278 <udd_attach+0xb0>)
   81240:	7893      	ldrb	r3, [r2, #2]
   81242:	2bff      	cmp	r3, #255	; 0xff
   81244:	d010      	beq.n	81268 <udd_attach+0xa0>
   81246:	f3ef 8310 	mrs	r3, PRIMASK
   8124a:	b672      	cpsid	i
   8124c:	f3bf 8f5f 	dmb	sy
   81250:	7891      	ldrb	r1, [r2, #2]
   81252:	7006      	strb	r6, [r0, #0]
   81254:	3101      	adds	r1, #1
   81256:	7091      	strb	r1, [r2, #2]
   81258:	2b00      	cmp	r3, #0
   8125a:	d1c1      	bne.n	811e0 <udd_attach+0x18>
   8125c:	2301      	movs	r3, #1
   8125e:	7003      	strb	r3, [r0, #0]
   81260:	f3bf 8f5f 	dmb	sy
   81264:	b662      	cpsie	i
   81266:	e7bb      	b.n	811e0 <udd_attach+0x18>
   81268:	e7fe      	b.n	81268 <udd_attach+0xa0>
   8126a:	bf00      	nop
   8126c:	200706f4 	.word	0x200706f4
   81270:	200701f6 	.word	0x200701f6
   81274:	400ac000 	.word	0x400ac000
   81278:	200707e8 	.word	0x200707e8

0008127c <UOTGHS_Handler>:
   8127c:	e92d 41f0 	stmdb	sp!, {r4, r5, r6, r7, r8, lr}
   81280:	4b93      	ldr	r3, [pc, #588]	; (814d0 <UOTGHS_Handler+0x254>)
   81282:	4798      	blx	r3
   81284:	b920      	cbnz	r0, 81290 <UOTGHS_Handler+0x14>
   81286:	4b93      	ldr	r3, [pc, #588]	; (814d4 <UOTGHS_Handler+0x258>)
   81288:	685b      	ldr	r3, [r3, #4]
   8128a:	f013 0301 	ands.w	r3, r3, #1
   8128e:	d049      	beq.n	81324 <UOTGHS_Handler+0xa8>
   81290:	4b90      	ldr	r3, [pc, #576]	; (814d4 <UOTGHS_Handler+0x258>)
   81292:	685a      	ldr	r2, [r3, #4]
   81294:	0755      	lsls	r5, r2, #29
   81296:	d508      	bpl.n	812aa <UOTGHS_Handler+0x2e>
   81298:	2204      	movs	r2, #4
   8129a:	609a      	str	r2, [r3, #8]
   8129c:	f8d3 3804 	ldr.w	r3, [r3, #2052]	; 0x804
   812a0:	f413 5f40 	tst.w	r3, #12288	; 0x3000
   812a4:	d03a      	beq.n	8131c <UOTGHS_Handler+0xa0>
   812a6:	e8bd 81f0 	ldmia.w	sp!, {r4, r5, r6, r7, r8, pc}
   812aa:	685a      	ldr	r2, [r3, #4]
   812ac:	0794      	lsls	r4, r2, #30
   812ae:	d433      	bmi.n	81318 <UOTGHS_Handler+0x9c>
   812b0:	685b      	ldr	r3, [r3, #4]
   812b2:	04d8      	lsls	r0, r3, #19
   812b4:	d53d      	bpl.n	81332 <UOTGHS_Handler+0xb6>
   812b6:	4b88      	ldr	r3, [pc, #544]	; (814d8 <UOTGHS_Handler+0x25c>)
   812b8:	2108      	movs	r1, #8
   812ba:	2010      	movs	r0, #16
   812bc:	4a87      	ldr	r2, [pc, #540]	; (814dc <UOTGHS_Handler+0x260>)
   812be:	6018      	str	r0, [r3, #0]
   812c0:	6019      	str	r1, [r3, #0]
   812c2:	6813      	ldr	r3, [r2, #0]
   812c4:	0759      	lsls	r1, r3, #29
   812c6:	f100 8170 	bmi.w	815aa <UOTGHS_Handler+0x32e>
   812ca:	6813      	ldr	r3, [r2, #0]
   812cc:	07da      	lsls	r2, r3, #31
   812ce:	d504      	bpl.n	812da <UOTGHS_Handler+0x5e>
   812d0:	4b83      	ldr	r3, [pc, #524]	; (814e0 <UOTGHS_Handler+0x264>)
   812d2:	681b      	ldr	r3, [r3, #0]
   812d4:	07db      	lsls	r3, r3, #31
   812d6:	f100 80e1 	bmi.w	8149c <UOTGHS_Handler+0x220>
   812da:	4b80      	ldr	r3, [pc, #512]	; (814dc <UOTGHS_Handler+0x260>)
   812dc:	681a      	ldr	r2, [r3, #0]
   812de:	0797      	lsls	r7, r2, #30
   812e0:	f100 8194 	bmi.w	8160c <UOTGHS_Handler+0x390>
   812e4:	681a      	ldr	r2, [r3, #0]
   812e6:	0716      	lsls	r6, r2, #28
   812e8:	f100 8089 	bmi.w	813fe <UOTGHS_Handler+0x182>
   812ec:	681a      	ldr	r2, [r3, #0]
   812ee:	06d4      	lsls	r4, r2, #27
   812f0:	d51f      	bpl.n	81332 <UOTGHS_Handler+0xb6>
   812f2:	4a7c      	ldr	r2, [pc, #496]	; (814e4 <UOTGHS_Handler+0x268>)
   812f4:	2110      	movs	r1, #16
   812f6:	6011      	str	r1, [r2, #0]
   812f8:	681b      	ldr	r3, [r3, #0]
   812fa:	0798      	lsls	r0, r3, #30
   812fc:	d4d3      	bmi.n	812a6 <UOTGHS_Handler+0x2a>
   812fe:	4b7a      	ldr	r3, [pc, #488]	; (814e8 <UOTGHS_Handler+0x26c>)
   81300:	781b      	ldrb	r3, [r3, #0]
   81302:	2b01      	cmp	r3, #1
   81304:	f000 82d2 	beq.w	818ac <UOTGHS_Handler+0x630>
   81308:	2b04      	cmp	r3, #4
   8130a:	d1cc      	bne.n	812a6 <UOTGHS_Handler+0x2a>
   8130c:	4b77      	ldr	r3, [pc, #476]	; (814ec <UOTGHS_Handler+0x270>)
   8130e:	f44f 2200 	mov.w	r2, #524288	; 0x80000
   81312:	601a      	str	r2, [r3, #0]
   81314:	e8bd 81f0 	ldmia.w	sp!, {r4, r5, r6, r7, r8, pc}
   81318:	2202      	movs	r2, #2
   8131a:	609a      	str	r2, [r3, #8]
   8131c:	4b74      	ldr	r3, [pc, #464]	; (814f0 <UOTGHS_Handler+0x274>)
   8131e:	4798      	blx	r3
   81320:	e8bd 81f0 	ldmia.w	sp!, {r4, r5, r6, r7, r8, pc}
   81324:	b672      	cpsid	i
   81326:	f3bf 8f5f 	dmb	sy
   8132a:	4a72      	ldr	r2, [pc, #456]	; (814f4 <UOTGHS_Handler+0x278>)
   8132c:	7013      	strb	r3, [r2, #0]
   8132e:	e8bd 81f0 	ldmia.w	sp!, {r4, r5, r6, r7, r8, pc}
   81332:	4b68      	ldr	r3, [pc, #416]	; (814d4 <UOTGHS_Handler+0x258>)
   81334:	691a      	ldr	r2, [r3, #16]
   81336:	0192      	lsls	r2, r2, #6
   81338:	d503      	bpl.n	81342 <UOTGHS_Handler+0xc6>
   8133a:	685a      	ldr	r2, [r3, #4]
   8133c:	0191      	lsls	r1, r2, #6
   8133e:	f100 80b1 	bmi.w	814a4 <UOTGHS_Handler+0x228>
   81342:	4b64      	ldr	r3, [pc, #400]	; (814d4 <UOTGHS_Handler+0x258>)
   81344:	691b      	ldr	r3, [r3, #16]
   81346:	049a      	lsls	r2, r3, #18
   81348:	d42f      	bmi.n	813aa <UOTGHS_Handler+0x12e>
   8134a:	4a62      	ldr	r2, [pc, #392]	; (814d4 <UOTGHS_Handler+0x258>)
   8134c:	6853      	ldr	r3, [r2, #4]
   8134e:	f013 0308 	ands.w	r3, r3, #8
   81352:	f040 8187 	bne.w	81664 <UOTGHS_Handler+0x3e8>
   81356:	6911      	ldr	r1, [r2, #16]
   81358:	07c9      	lsls	r1, r1, #31
   8135a:	f100 8082 	bmi.w	81462 <UOTGHS_Handler+0x1e6>
   8135e:	4a5d      	ldr	r2, [pc, #372]	; (814d4 <UOTGHS_Handler+0x258>)
   81360:	6913      	ldr	r3, [r2, #16]
   81362:	06de      	lsls	r6, r3, #27
   81364:	f140 80de 	bpl.w	81524 <UOTGHS_Handler+0x2a8>
   81368:	6853      	ldr	r3, [r2, #4]
   8136a:	06dd      	lsls	r5, r3, #27
   8136c:	f140 80da 	bpl.w	81524 <UOTGHS_Handler+0x2a8>
   81370:	f8d2 1800 	ldr.w	r1, [r2, #2048]	; 0x800
   81374:	4613      	mov	r3, r2
   81376:	f421 4180 	bic.w	r1, r1, #16384	; 0x4000
   8137a:	f8c2 1800 	str.w	r1, [r2, #2048]	; 0x800
   8137e:	e002      	b.n	81386 <UOTGHS_Handler+0x10a>
   81380:	685a      	ldr	r2, [r3, #4]
   81382:	07d4      	lsls	r4, r2, #31
   81384:	d403      	bmi.n	8138e <UOTGHS_Handler+0x112>
   81386:	f8d3 2804 	ldr.w	r2, [r3, #2052]	; 0x804
   8138a:	0450      	lsls	r0, r2, #17
   8138c:	d5f8      	bpl.n	81380 <UOTGHS_Handler+0x104>
   8138e:	4b51      	ldr	r3, [pc, #324]	; (814d4 <UOTGHS_Handler+0x258>)
   81390:	2210      	movs	r2, #16
   81392:	2501      	movs	r5, #1
   81394:	4c58      	ldr	r4, [pc, #352]	; (814f8 <UOTGHS_Handler+0x27c>)
   81396:	615a      	str	r2, [r3, #20]
   81398:	619d      	str	r5, [r3, #24]
   8139a:	7826      	ldrb	r6, [r4, #0]
   8139c:	2e00      	cmp	r6, #0
   8139e:	f000 826e 	beq.w	8187e <UOTGHS_Handler+0x602>
   813a2:	2301      	movs	r3, #1
   813a4:	7023      	strb	r3, [r4, #0]
   813a6:	e8bd 81f0 	ldmia.w	sp!, {r4, r5, r6, r7, r8, pc}
   813aa:	4b54      	ldr	r3, [pc, #336]	; (814fc <UOTGHS_Handler+0x280>)
   813ac:	681b      	ldr	r3, [r3, #0]
   813ae:	07db      	lsls	r3, r3, #31
   813b0:	d532      	bpl.n	81418 <UOTGHS_Handler+0x19c>
   813b2:	4b53      	ldr	r3, [pc, #332]	; (81500 <UOTGHS_Handler+0x284>)
   813b4:	681b      	ldr	r3, [r3, #0]
   813b6:	07de      	lsls	r6, r3, #31
   813b8:	d52e      	bpl.n	81418 <UOTGHS_Handler+0x19c>
   813ba:	4a52      	ldr	r2, [pc, #328]	; (81504 <UOTGHS_Handler+0x288>)
   813bc:	4c52      	ldr	r4, [pc, #328]	; (81508 <UOTGHS_Handler+0x28c>)
   813be:	2101      	movs	r1, #1
   813c0:	f44f 4080 	mov.w	r0, #16384	; 0x4000
   813c4:	4b51      	ldr	r3, [pc, #324]	; (8150c <UOTGHS_Handler+0x290>)
   813c6:	6011      	str	r1, [r2, #0]
   813c8:	6021      	str	r1, [r4, #0]
   813ca:	6010      	str	r0, [r2, #0]
   813cc:	7d1a      	ldrb	r2, [r3, #20]
   813ce:	07d4      	lsls	r4, r2, #31
   813d0:	f57f af69 	bpl.w	812a6 <UOTGHS_Handler+0x2a>
   813d4:	681c      	ldr	r4, [r3, #0]
   813d6:	f36f 0200 	bfc	r2, #0, #1
   813da:	751a      	strb	r2, [r3, #20]
   813dc:	2c00      	cmp	r4, #0
   813de:	f43f af62 	beq.w	812a6 <UOTGHS_Handler+0x2a>
   813e2:	4a4b      	ldr	r2, [pc, #300]	; (81510 <UOTGHS_Handler+0x294>)
   813e4:	6899      	ldr	r1, [r3, #8]
   813e6:	6813      	ldr	r3, [r2, #0]
   813e8:	2000      	movs	r0, #0
   813ea:	f413 7f80 	tst.w	r3, #256	; 0x100
   813ee:	bf08      	it	eq
   813f0:	2201      	moveq	r2, #1
   813f2:	4623      	mov	r3, r4
   813f4:	e8bd 41f0 	ldmia.w	sp!, {r4, r5, r6, r7, r8, lr}
   813f8:	bf18      	it	ne
   813fa:	2281      	movne	r2, #129	; 0x81
   813fc:	4718      	bx	r3
   813fe:	4a39      	ldr	r2, [pc, #228]	; (814e4 <UOTGHS_Handler+0x268>)
   81400:	2108      	movs	r1, #8
   81402:	6011      	str	r1, [r2, #0]
   81404:	681b      	ldr	r3, [r3, #0]
   81406:	07dd      	lsls	r5, r3, #31
   81408:	f53f af4d 	bmi.w	812a6 <UOTGHS_Handler+0x2a>
   8140c:	4b36      	ldr	r3, [pc, #216]	; (814e8 <UOTGHS_Handler+0x26c>)
   8140e:	781b      	ldrb	r3, [r3, #0]
   81410:	2b03      	cmp	r3, #3
   81412:	f47f af48 	bne.w	812a6 <UOTGHS_Handler+0x2a>
   81416:	e779      	b.n	8130c <UOTGHS_Handler+0x90>
   81418:	4b38      	ldr	r3, [pc, #224]	; (814fc <UOTGHS_Handler+0x280>)
   8141a:	681b      	ldr	r3, [r3, #0]
   8141c:	04df      	lsls	r7, r3, #19
   8141e:	d594      	bpl.n	8134a <UOTGHS_Handler+0xce>
   81420:	4b37      	ldr	r3, [pc, #220]	; (81500 <UOTGHS_Handler+0x284>)
   81422:	681b      	ldr	r3, [r3, #0]
   81424:	f3c3 3301 	ubfx	r3, r3, #12, #2
   81428:	2b00      	cmp	r3, #0
   8142a:	d18e      	bne.n	8134a <UOTGHS_Handler+0xce>
   8142c:	4c35      	ldr	r4, [pc, #212]	; (81504 <UOTGHS_Handler+0x288>)
   8142e:	4a29      	ldr	r2, [pc, #164]	; (814d4 <UOTGHS_Handler+0x258>)
   81430:	f44f 5680 	mov.w	r6, #4096	; 0x1000
   81434:	f44f 5100 	mov.w	r1, #8192	; 0x2000
   81438:	4d35      	ldr	r5, [pc, #212]	; (81510 <UOTGHS_Handler+0x294>)
   8143a:	4834      	ldr	r0, [pc, #208]	; (8150c <UOTGHS_Handler+0x290>)
   8143c:	6026      	str	r6, [r4, #0]
   8143e:	6151      	str	r1, [r2, #20]
   81440:	682a      	ldr	r2, [r5, #0]
   81442:	7d04      	ldrb	r4, [r0, #20]
   81444:	4933      	ldr	r1, [pc, #204]	; (81514 <UOTGHS_Handler+0x298>)
   81446:	f363 0482 	bfi	r4, r3, #2, #1
   8144a:	f422 7200 	bic.w	r2, r2, #512	; 0x200
   8144e:	f44f 2600 	mov.w	r6, #524288	; 0x80000
   81452:	f44f 2380 	mov.w	r3, #262144	; 0x40000
   81456:	602a      	str	r2, [r5, #0]
   81458:	7504      	strb	r4, [r0, #20]
   8145a:	600e      	str	r6, [r1, #0]
   8145c:	600b      	str	r3, [r1, #0]
   8145e:	e8bd 81f0 	ldmia.w	sp!, {r4, r5, r6, r7, r8, pc}
   81462:	6851      	ldr	r1, [r2, #4]
   81464:	07cf      	lsls	r7, r1, #31
   81466:	f57f af7a 	bpl.w	8135e <UOTGHS_Handler+0xe2>
   8146a:	f8d2 1800 	ldr.w	r1, [r2, #2048]	; 0x800
   8146e:	2401      	movs	r4, #1
   81470:	f421 4180 	bic.w	r1, r1, #16384	; 0x4000
   81474:	2010      	movs	r0, #16
   81476:	f8c2 1800 	str.w	r1, [r2, #2048]	; 0x800
   8147a:	6154      	str	r4, [r2, #20]
   8147c:	6190      	str	r0, [r2, #24]
   8147e:	f8d2 1800 	ldr.w	r1, [r2, #2048]	; 0x800
   81482:	4c1d      	ldr	r4, [pc, #116]	; (814f8 <UOTGHS_Handler+0x27c>)
   81484:	f441 4180 	orr.w	r1, r1, #16384	; 0x4000
   81488:	f8c2 1800 	str.w	r1, [r2, #2048]	; 0x800
   8148c:	7822      	ldrb	r2, [r4, #0]
   8148e:	2a00      	cmp	r2, #0
   81490:	f040 823f 	bne.w	81912 <UOTGHS_Handler+0x696>
   81494:	2300      	movs	r3, #0
   81496:	7023      	strb	r3, [r4, #0]
   81498:	e8bd 81f0 	ldmia.w	sp!, {r4, r5, r6, r7, r8, pc}
   8149c:	4b1e      	ldr	r3, [pc, #120]	; (81518 <UOTGHS_Handler+0x29c>)
   8149e:	4798      	blx	r3
   814a0:	e8bd 81f0 	ldmia.w	sp!, {r4, r5, r6, r7, r8, pc}
   814a4:	4a1d      	ldr	r2, [pc, #116]	; (8151c <UOTGHS_Handler+0x2a0>)
   814a6:	68d1      	ldr	r1, [r2, #12]
   814a8:	07cd      	lsls	r5, r1, #31
   814aa:	f53f aefc 	bmi.w	812a6 <UOTGHS_Handler+0x2a>
   814ae:	f04f 7100 	mov.w	r1, #33554432	; 0x2000000
   814b2:	6159      	str	r1, [r3, #20]
   814b4:	68d3      	ldr	r3, [r2, #12]
   814b6:	0c1a      	lsrs	r2, r3, #16
   814b8:	d004      	beq.n	814c4 <UOTGHS_Handler+0x248>
   814ba:	4914      	ldr	r1, [pc, #80]	; (8150c <UOTGHS_Handler+0x290>)
   814bc:	68cb      	ldr	r3, [r1, #12]
   814be:	1a9b      	subs	r3, r3, r2
   814c0:	60cb      	str	r3, [r1, #12]
   814c2:	608b      	str	r3, [r1, #8]
   814c4:	2001      	movs	r0, #1
   814c6:	4b16      	ldr	r3, [pc, #88]	; (81520 <UOTGHS_Handler+0x2a4>)
   814c8:	4798      	blx	r3
   814ca:	e8bd 81f0 	ldmia.w	sp!, {r4, r5, r6, r7, r8, pc}
   814ce:	bf00      	nop
   814d0:	00082825 	.word	0x00082825
   814d4:	400ac000 	.word	0x400ac000
   814d8:	400ac220 	.word	0x400ac220
   814dc:	400ac130 	.word	0x400ac130
   814e0:	400ac1c0 	.word	0x400ac1c0
   814e4:	400ac160 	.word	0x400ac160
   814e8:	200706f5 	.word	0x200706f5
   814ec:	400ac1f0 	.word	0x400ac1f0
   814f0:	000805f9 	.word	0x000805f9
   814f4:	200701f6 	.word	0x200701f6
   814f8:	200706f4 	.word	0x200706f4
   814fc:	400ac1c4 	.word	0x400ac1c4
   81500:	400ac134 	.word	0x400ac134
   81504:	400ac224 	.word	0x400ac224
   81508:	400ac164 	.word	0x400ac164
   8150c:	200706d8 	.word	0x200706d8
   81510:	400ac104 	.word	0x400ac104
   81514:	400ac1f4 	.word	0x400ac1f4
   81518:	00080cd5 	.word	0x00080cd5
   8151c:	400ac310 	.word	0x400ac310
   81520:	00080e7d 	.word	0x00080e7d
   81524:	4ba3      	ldr	r3, [pc, #652]	; (817b4 <UOTGHS_Handler+0x538>)
   81526:	f8d3 2804 	ldr.w	r2, [r3, #2052]	; 0x804
   8152a:	0791      	lsls	r1, r2, #30
   8152c:	f57f aebb 	bpl.w	812a6 <UOTGHS_Handler+0x2a>
   81530:	f8d3 2800 	ldr.w	r2, [r3, #2048]	; 0x800
   81534:	2102      	movs	r1, #2
   81536:	f422 4280 	bic.w	r2, r2, #16384	; 0x4000
   8153a:	f8c3 2800 	str.w	r2, [r3, #2048]	; 0x800
   8153e:	f8c3 1808 	str.w	r1, [r3, #2056]	; 0x808
   81542:	f8d3 2800 	ldr.w	r2, [r3, #2048]	; 0x800
   81546:	f442 4280 	orr.w	r2, r2, #16384	; 0x4000
   8154a:	f8c3 2800 	str.w	r2, [r3, #2048]	; 0x800
   8154e:	f8d3 2804 	ldr.w	r2, [r3, #2052]	; 0x804
   81552:	f412 6000 	ands.w	r0, r2, #2048	; 0x800
   81556:	f040 8128 	bne.w	817aa <UOTGHS_Handler+0x52e>
   8155a:	f8d3 2800 	ldr.w	r2, [r3, #2048]	; 0x800
   8155e:	4c96      	ldr	r4, [pc, #600]	; (817b8 <UOTGHS_Handler+0x53c>)
   81560:	f422 4280 	bic.w	r2, r2, #16384	; 0x4000
   81564:	f8c3 2800 	str.w	r2, [r3, #2048]	; 0x800
   81568:	681a      	ldr	r2, [r3, #0]
   8156a:	f442 7280 	orr.w	r2, r2, #256	; 0x100
   8156e:	601a      	str	r2, [r3, #0]
   81570:	f8d3 2800 	ldr.w	r2, [r3, #2048]	; 0x800
   81574:	f442 4280 	orr.w	r2, r2, #16384	; 0x4000
   81578:	f8c3 2800 	str.w	r2, [r3, #2048]	; 0x800
   8157c:	7823      	ldrb	r3, [r4, #0]
   8157e:	2b00      	cmp	r3, #0
   81580:	d088      	beq.n	81494 <UOTGHS_Handler+0x218>
   81582:	4a8e      	ldr	r2, [pc, #568]	; (817bc <UOTGHS_Handler+0x540>)
   81584:	7893      	ldrb	r3, [r2, #2]
   81586:	b17b      	cbz	r3, 815a8 <UOTGHS_Handler+0x32c>
   81588:	f3ef 8310 	mrs	r3, PRIMASK
   8158c:	b672      	cpsid	i
   8158e:	f3bf 8f5f 	dmb	sy
   81592:	7891      	ldrb	r1, [r2, #2]
   81594:	4d8a      	ldr	r5, [pc, #552]	; (817c0 <UOTGHS_Handler+0x544>)
   81596:	3901      	subs	r1, #1
   81598:	7028      	strb	r0, [r5, #0]
   8159a:	7091      	strb	r1, [r2, #2]
   8159c:	2b00      	cmp	r3, #0
   8159e:	f47f af79 	bne.w	81494 <UOTGHS_Handler+0x218>
   815a2:	4b88      	ldr	r3, [pc, #544]	; (817c4 <UOTGHS_Handler+0x548>)
   815a4:	4798      	blx	r3
   815a6:	e775      	b.n	81494 <UOTGHS_Handler+0x218>
   815a8:	e7fe      	b.n	815a8 <UOTGHS_Handler+0x32c>
   815aa:	4d87      	ldr	r5, [pc, #540]	; (817c8 <UOTGHS_Handler+0x54c>)
   815ac:	782b      	ldrb	r3, [r5, #0]
   815ae:	b1db      	cbz	r3, 815e8 <UOTGHS_Handler+0x36c>
   815b0:	4c86      	ldr	r4, [pc, #536]	; (817cc <UOTGHS_Handler+0x550>)
   815b2:	6923      	ldr	r3, [r4, #16]
   815b4:	b103      	cbz	r3, 815b8 <UOTGHS_Handler+0x33c>
   815b6:	4798      	blx	r3
   815b8:	f3ef 8310 	mrs	r3, PRIMASK
   815bc:	b672      	cpsid	i
   815be:	f3bf 8f5f 	dmb	sy
   815c2:	4a7f      	ldr	r2, [pc, #508]	; (817c0 <UOTGHS_Handler+0x544>)
   815c4:	4882      	ldr	r0, [pc, #520]	; (817d0 <UOTGHS_Handler+0x554>)
   815c6:	2600      	movs	r6, #0
   815c8:	2101      	movs	r1, #1
   815ca:	7016      	strb	r6, [r2, #0]
   815cc:	6001      	str	r1, [r0, #0]
   815ce:	b91b      	cbnz	r3, 815d8 <UOTGHS_Handler+0x35c>
   815d0:	7011      	strb	r1, [r2, #0]
   815d2:	f3bf 8f5f 	dmb	sy
   815d6:	b662      	cpsie	i
   815d8:	4a7e      	ldr	r2, [pc, #504]	; (817d4 <UOTGHS_Handler+0x558>)
   815da:	2300      	movs	r3, #0
   815dc:	2102      	movs	r1, #2
   815de:	6011      	str	r1, [r2, #0]
   815e0:	6123      	str	r3, [r4, #16]
   815e2:	6163      	str	r3, [r4, #20]
   815e4:	81a3      	strh	r3, [r4, #12]
   815e6:	702b      	strb	r3, [r5, #0]
   815e8:	4b7b      	ldr	r3, [pc, #492]	; (817d8 <UOTGHS_Handler+0x55c>)
   815ea:	681b      	ldr	r3, [r3, #0]
   815ec:	f3c3 530a 	ubfx	r3, r3, #20, #11
   815f0:	2b08      	cmp	r3, #8
   815f2:	f000 808a 	beq.w	8170a <UOTGHS_Handler+0x48e>
   815f6:	4979      	ldr	r1, [pc, #484]	; (817dc <UOTGHS_Handler+0x560>)
   815f8:	4b76      	ldr	r3, [pc, #472]	; (817d4 <UOTGHS_Handler+0x558>)
   815fa:	2405      	movs	r4, #5
   815fc:	f44f 2000 	mov.w	r0, #524288	; 0x80000
   81600:	2204      	movs	r2, #4
   81602:	702c      	strb	r4, [r5, #0]
   81604:	6008      	str	r0, [r1, #0]
   81606:	601a      	str	r2, [r3, #0]
   81608:	e8bd 81f0 	ldmia.w	sp!, {r4, r5, r6, r7, r8, pc}
   8160c:	4d6e      	ldr	r5, [pc, #440]	; (817c8 <UOTGHS_Handler+0x54c>)
   8160e:	782a      	ldrb	r2, [r5, #0]
   81610:	2a01      	cmp	r2, #1
   81612:	f000 8101 	beq.w	81818 <UOTGHS_Handler+0x59c>
   81616:	2a02      	cmp	r2, #2
   81618:	f000 80c0 	beq.w	8179c <UOTGHS_Handler+0x520>
   8161c:	2a04      	cmp	r2, #4
   8161e:	f000 80bd 	beq.w	8179c <UOTGHS_Handler+0x520>
   81622:	4b6e      	ldr	r3, [pc, #440]	; (817dc <UOTGHS_Handler+0x560>)
   81624:	2105      	movs	r1, #5
   81626:	f44f 2200 	mov.w	r2, #524288	; 0x80000
   8162a:	4c68      	ldr	r4, [pc, #416]	; (817cc <UOTGHS_Handler+0x550>)
   8162c:	7029      	strb	r1, [r5, #0]
   8162e:	601a      	str	r2, [r3, #0]
   81630:	f3ef 8310 	mrs	r3, PRIMASK
   81634:	b672      	cpsid	i
   81636:	f3bf 8f5f 	dmb	sy
   8163a:	4a61      	ldr	r2, [pc, #388]	; (817c0 <UOTGHS_Handler+0x544>)
   8163c:	4864      	ldr	r0, [pc, #400]	; (817d0 <UOTGHS_Handler+0x554>)
   8163e:	2600      	movs	r6, #0
   81640:	2101      	movs	r1, #1
   81642:	7016      	strb	r6, [r2, #0]
   81644:	6001      	str	r1, [r0, #0]
   81646:	b91b      	cbnz	r3, 81650 <UOTGHS_Handler+0x3d4>
   81648:	7011      	strb	r1, [r2, #0]
   8164a:	f3bf 8f5f 	dmb	sy
   8164e:	b662      	cpsie	i
   81650:	4a60      	ldr	r2, [pc, #384]	; (817d4 <UOTGHS_Handler+0x558>)
   81652:	2300      	movs	r3, #0
   81654:	2102      	movs	r1, #2
   81656:	6011      	str	r1, [r2, #0]
   81658:	6123      	str	r3, [r4, #16]
   8165a:	6163      	str	r3, [r4, #20]
   8165c:	81a3      	strh	r3, [r4, #12]
   8165e:	702b      	strb	r3, [r5, #0]
   81660:	e8bd 81f0 	ldmia.w	sp!, {r4, r5, r6, r7, r8, pc}
   81664:	2108      	movs	r1, #8
   81666:	4b5e      	ldr	r3, [pc, #376]	; (817e0 <UOTGHS_Handler+0x564>)
   81668:	6091      	str	r1, [r2, #8]
   8166a:	7d1a      	ldrb	r2, [r3, #20]
   8166c:	07d0      	lsls	r0, r2, #31
   8166e:	f100 8121 	bmi.w	818b4 <UOTGHS_Handler+0x638>
   81672:	4b5c      	ldr	r3, [pc, #368]	; (817e4 <UOTGHS_Handler+0x568>)
   81674:	4798      	blx	r3
   81676:	4b4f      	ldr	r3, [pc, #316]	; (817b4 <UOTGHS_Handler+0x538>)
   81678:	495b      	ldr	r1, [pc, #364]	; (817e8 <UOTGHS_Handler+0x56c>)
   8167a:	681a      	ldr	r2, [r3, #0]
   8167c:	f022 027f 	bic.w	r2, r2, #127	; 0x7f
   81680:	601a      	str	r2, [r3, #0]
   81682:	681a      	ldr	r2, [r3, #0]
   81684:	f042 0280 	orr.w	r2, r2, #128	; 0x80
   81688:	601a      	str	r2, [r3, #0]
   8168a:	680a      	ldr	r2, [r1, #0]
   8168c:	f422 52cb 	bic.w	r2, r2, #6496	; 0x1960
   81690:	f022 021c 	bic.w	r2, r2, #28
   81694:	600a      	str	r2, [r1, #0]
   81696:	680a      	ldr	r2, [r1, #0]
   81698:	f042 0202 	orr.w	r2, r2, #2
   8169c:	600a      	str	r2, [r1, #0]
   8169e:	69da      	ldr	r2, [r3, #28]
   816a0:	f042 0201 	orr.w	r2, r2, #1
   816a4:	61da      	str	r2, [r3, #28]
   816a6:	f3ef 8110 	mrs	r1, PRIMASK
   816aa:	b672      	cpsid	i
   816ac:	f3bf 8f5f 	dmb	sy
   816b0:	484a      	ldr	r0, [pc, #296]	; (817dc <UOTGHS_Handler+0x560>)
   816b2:	4a43      	ldr	r2, [pc, #268]	; (817c0 <UOTGHS_Handler+0x544>)
   816b4:	2700      	movs	r7, #0
   816b6:	2604      	movs	r6, #4
   816b8:	2502      	movs	r5, #2
   816ba:	f44f 5480 	mov.w	r4, #4096	; 0x1000
   816be:	7017      	strb	r7, [r2, #0]
   816c0:	6006      	str	r6, [r0, #0]
   816c2:	6005      	str	r5, [r0, #0]
   816c4:	619c      	str	r4, [r3, #24]
   816c6:	b921      	cbnz	r1, 816d2 <UOTGHS_Handler+0x456>
   816c8:	2301      	movs	r3, #1
   816ca:	7013      	strb	r3, [r2, #0]
   816cc:	f3bf 8f5f 	dmb	sy
   816d0:	b662      	cpsie	i
   816d2:	f3ef 8310 	mrs	r3, PRIMASK
   816d6:	b672      	cpsid	i
   816d8:	f3bf 8f5f 	dmb	sy
   816dc:	483c      	ldr	r0, [pc, #240]	; (817d0 <UOTGHS_Handler+0x554>)
   816de:	2400      	movs	r4, #0
   816e0:	2101      	movs	r1, #1
   816e2:	7014      	strb	r4, [r2, #0]
   816e4:	4a36      	ldr	r2, [pc, #216]	; (817c0 <UOTGHS_Handler+0x544>)
   816e6:	6001      	str	r1, [r0, #0]
   816e8:	b91b      	cbnz	r3, 816f2 <UOTGHS_Handler+0x476>
   816ea:	7011      	strb	r1, [r2, #0]
   816ec:	f3bf 8f5f 	dmb	sy
   816f0:	b662      	cpsie	i
   816f2:	4a36      	ldr	r2, [pc, #216]	; (817cc <UOTGHS_Handler+0x550>)
   816f4:	4837      	ldr	r0, [pc, #220]	; (817d4 <UOTGHS_Handler+0x558>)
   816f6:	4934      	ldr	r1, [pc, #208]	; (817c8 <UOTGHS_Handler+0x54c>)
   816f8:	2300      	movs	r3, #0
   816fa:	2402      	movs	r4, #2
   816fc:	6004      	str	r4, [r0, #0]
   816fe:	6113      	str	r3, [r2, #16]
   81700:	6153      	str	r3, [r2, #20]
   81702:	8193      	strh	r3, [r2, #12]
   81704:	700b      	strb	r3, [r1, #0]
   81706:	e8bd 81f0 	ldmia.w	sp!, {r4, r5, r6, r7, r8, pc}
   8170a:	4b38      	ldr	r3, [pc, #224]	; (817ec <UOTGHS_Handler+0x570>)
   8170c:	4c2f      	ldr	r4, [pc, #188]	; (817cc <UOTGHS_Handler+0x550>)
   8170e:	f893 c000 	ldrb.w	ip, [r3]
   81712:	f8df e100 	ldr.w	lr, [pc, #256]	; 81814 <UOTGHS_Handler+0x598>
   81716:	4f36      	ldr	r7, [pc, #216]	; (817f0 <UOTGHS_Handler+0x574>)
   81718:	4e36      	ldr	r6, [pc, #216]	; (817f4 <UOTGHS_Handler+0x578>)
   8171a:	4837      	ldr	r0, [pc, #220]	; (817f8 <UOTGHS_Handler+0x57c>)
   8171c:	4937      	ldr	r1, [pc, #220]	; (817fc <UOTGHS_Handler+0x580>)
   8171e:	4a38      	ldr	r2, [pc, #224]	; (81800 <UOTGHS_Handler+0x584>)
   81720:	f884 c000 	strb.w	ip, [r4]
   81724:	f89e c000 	ldrb.w	ip, [lr]
   81728:	f897 e000 	ldrb.w	lr, [r7]
   8172c:	7837      	ldrb	r7, [r6, #0]
   8172e:	7806      	ldrb	r6, [r0, #0]
   81730:	7808      	ldrb	r0, [r1, #0]
   81732:	7811      	ldrb	r1, [r2, #0]
   81734:	79da      	ldrb	r2, [r3, #7]
   81736:	4b33      	ldr	r3, [pc, #204]	; (81804 <UOTGHS_Handler+0x588>)
   81738:	f884 c001 	strb.w	ip, [r4, #1]
   8173c:	f884 e002 	strb.w	lr, [r4, #2]
   81740:	70e7      	strb	r7, [r4, #3]
   81742:	7126      	strb	r6, [r4, #4]
   81744:	7160      	strb	r0, [r4, #5]
   81746:	71a1      	strb	r1, [r4, #6]
   81748:	71e2      	strb	r2, [r4, #7]
   8174a:	4798      	blx	r3
   8174c:	2800      	cmp	r0, #0
   8174e:	f43f af52 	beq.w	815f6 <UOTGHS_Handler+0x37a>
   81752:	4b20      	ldr	r3, [pc, #128]	; (817d4 <UOTGHS_Handler+0x558>)
   81754:	2204      	movs	r2, #4
   81756:	601a      	str	r2, [r3, #0]
   81758:	f994 2000 	ldrsb.w	r2, [r4]
   8175c:	2a00      	cmp	r2, #0
   8175e:	f2c0 810d 	blt.w	8197c <UOTGHS_Handler+0x700>
   81762:	88e2      	ldrh	r2, [r4, #6]
   81764:	2a00      	cmp	r2, #0
   81766:	f000 80a1 	beq.w	818ac <UOTGHS_Handler+0x630>
   8176a:	4e27      	ldr	r6, [pc, #156]	; (81808 <UOTGHS_Handler+0x58c>)
   8176c:	4c27      	ldr	r4, [pc, #156]	; (8180c <UOTGHS_Handler+0x590>)
   8176e:	2200      	movs	r2, #0
   81770:	2001      	movs	r0, #1
   81772:	2110      	movs	r1, #16
   81774:	8032      	strh	r2, [r6, #0]
   81776:	8022      	strh	r2, [r4, #0]
   81778:	7028      	strb	r0, [r5, #0]
   8177a:	6019      	str	r1, [r3, #0]
   8177c:	f3ef 8310 	mrs	r3, PRIMASK
   81780:	b672      	cpsid	i
   81782:	f3bf 8f5f 	dmb	sy
   81786:	4c0e      	ldr	r4, [pc, #56]	; (817c0 <UOTGHS_Handler+0x544>)
   81788:	4814      	ldr	r0, [pc, #80]	; (817dc <UOTGHS_Handler+0x560>)
   8178a:	7022      	strb	r2, [r4, #0]
   8178c:	6001      	str	r1, [r0, #0]
   8178e:	2b00      	cmp	r3, #0
   81790:	f47f ad89 	bne.w	812a6 <UOTGHS_Handler+0x2a>
   81794:	4b0b      	ldr	r3, [pc, #44]	; (817c4 <UOTGHS_Handler+0x548>)
   81796:	4798      	blx	r3
   81798:	e8bd 81f0 	ldmia.w	sp!, {r4, r5, r6, r7, r8, pc}
   8179c:	4c0b      	ldr	r4, [pc, #44]	; (817cc <UOTGHS_Handler+0x550>)
   8179e:	6923      	ldr	r3, [r4, #16]
   817a0:	2b00      	cmp	r3, #0
   817a2:	f43f af45 	beq.w	81630 <UOTGHS_Handler+0x3b4>
   817a6:	4798      	blx	r3
   817a8:	e742      	b.n	81630 <UOTGHS_Handler+0x3b4>
   817aa:	4b19      	ldr	r3, [pc, #100]	; (81810 <UOTGHS_Handler+0x594>)
   817ac:	4798      	blx	r3
   817ae:	e8bd 81f0 	ldmia.w	sp!, {r4, r5, r6, r7, r8, pc}
   817b2:	bf00      	nop
   817b4:	400ac000 	.word	0x400ac000
   817b8:	200706f4 	.word	0x200706f4
   817bc:	200707e8 	.word	0x200707e8
   817c0:	200701f6 	.word	0x200701f6
   817c4:	00080c79 	.word	0x00080c79
   817c8:	200706f5 	.word	0x200706f5
   817cc:	200707f0 	.word	0x200707f0
   817d0:	400ac220 	.word	0x400ac220
   817d4:	400ac160 	.word	0x400ac160
   817d8:	400ac130 	.word	0x400ac130
   817dc:	400ac1f0 	.word	0x400ac1f0
   817e0:	200706d8 	.word	0x200706d8
   817e4:	00080561 	.word	0x00080561
   817e8:	400ac100 	.word	0x400ac100
   817ec:	20180000 	.word	0x20180000
   817f0:	20180002 	.word	0x20180002
   817f4:	20180003 	.word	0x20180003
   817f8:	20180004 	.word	0x20180004
   817fc:	20180005 	.word	0x20180005
   81800:	20180006 	.word	0x20180006
   81804:	00080631 	.word	0x00080631
   81808:	200706f2 	.word	0x200706f2
   8180c:	200706f6 	.word	0x200706f6
   81810:	000811c9 	.word	0x000811c9
   81814:	20180001 	.word	0x20180001
   81818:	f8df e19c 	ldr.w	lr, [pc, #412]	; 819b8 <UOTGHS_Handler+0x73c>
   8181c:	4c64      	ldr	r4, [pc, #400]	; (819b0 <UOTGHS_Handler+0x734>)
   8181e:	681b      	ldr	r3, [r3, #0]
   81820:	f8be 1000 	ldrh.w	r1, [lr]
   81824:	f3c3 530a 	ubfx	r3, r3, #20, #11
   81828:	89a2      	ldrh	r2, [r4, #12]
   8182a:	18c8      	adds	r0, r1, r3
   8182c:	4282      	cmp	r2, r0
   8182e:	bfb8      	it	lt
   81830:	1a53      	sublt	r3, r2, r1
   81832:	b29b      	uxth	r3, r3
   81834:	68a6      	ldr	r6, [r4, #8]
   81836:	b183      	cbz	r3, 8185a <UOTGHS_Handler+0x5de>
   81838:	1e4a      	subs	r2, r1, #1
   8183a:	485e      	ldr	r0, [pc, #376]	; (819b4 <UOTGHS_Handler+0x738>)
   8183c:	4432      	add	r2, r6
   8183e:	f810 7b01 	ldrb.w	r7, [r0], #1
   81842:	b2c6      	uxtb	r6, r0
   81844:	429e      	cmp	r6, r3
   81846:	f802 7f01 	strb.w	r7, [r2, #1]!
   8184a:	d3f8      	bcc.n	8183e <UOTGHS_Handler+0x5c2>
   8184c:	4419      	add	r1, r3
   8184e:	b289      	uxth	r1, r1
   81850:	2b08      	cmp	r3, #8
   81852:	f8ae 1000 	strh.w	r1, [lr]
   81856:	4f58      	ldr	r7, [pc, #352]	; (819b8 <UOTGHS_Handler+0x73c>)
   81858:	d06d      	beq.n	81936 <UOTGHS_Handler+0x6ba>
   8185a:	6963      	ldr	r3, [r4, #20]
   8185c:	81a1      	strh	r1, [r4, #12]
   8185e:	2b00      	cmp	r3, #0
   81860:	d03a      	beq.n	818d8 <UOTGHS_Handler+0x65c>
   81862:	4798      	blx	r3
   81864:	2800      	cmp	r0, #0
   81866:	d137      	bne.n	818d8 <UOTGHS_Handler+0x65c>
   81868:	4954      	ldr	r1, [pc, #336]	; (819bc <UOTGHS_Handler+0x740>)
   8186a:	4b55      	ldr	r3, [pc, #340]	; (819c0 <UOTGHS_Handler+0x744>)
   8186c:	2405      	movs	r4, #5
   8186e:	f44f 2000 	mov.w	r0, #524288	; 0x80000
   81872:	2202      	movs	r2, #2
   81874:	702c      	strb	r4, [r5, #0]
   81876:	6008      	str	r0, [r1, #0]
   81878:	601a      	str	r2, [r3, #0]
   8187a:	e8bd 81f0 	ldmia.w	sp!, {r4, r5, r6, r7, r8, pc}
   8187e:	4a51      	ldr	r2, [pc, #324]	; (819c4 <UOTGHS_Handler+0x748>)
   81880:	7893      	ldrb	r3, [r2, #2]
   81882:	2bff      	cmp	r3, #255	; 0xff
   81884:	d011      	beq.n	818aa <UOTGHS_Handler+0x62e>
   81886:	f3ef 8310 	mrs	r3, PRIMASK
   8188a:	b672      	cpsid	i
   8188c:	f3bf 8f5f 	dmb	sy
   81890:	7891      	ldrb	r1, [r2, #2]
   81892:	484d      	ldr	r0, [pc, #308]	; (819c8 <UOTGHS_Handler+0x74c>)
   81894:	3101      	adds	r1, #1
   81896:	7006      	strb	r6, [r0, #0]
   81898:	7091      	strb	r1, [r2, #2]
   8189a:	2b00      	cmp	r3, #0
   8189c:	f47f ad81 	bne.w	813a2 <UOTGHS_Handler+0x126>
   818a0:	7005      	strb	r5, [r0, #0]
   818a2:	f3bf 8f5f 	dmb	sy
   818a6:	b662      	cpsie	i
   818a8:	e57b      	b.n	813a2 <UOTGHS_Handler+0x126>
   818aa:	e7fe      	b.n	818aa <UOTGHS_Handler+0x62e>
   818ac:	4b47      	ldr	r3, [pc, #284]	; (819cc <UOTGHS_Handler+0x750>)
   818ae:	4798      	blx	r3
   818b0:	e8bd 81f0 	ldmia.w	sp!, {r4, r5, r6, r7, r8, pc}
   818b4:	681c      	ldr	r4, [r3, #0]
   818b6:	f36f 0200 	bfc	r2, #0, #1
   818ba:	751a      	strb	r2, [r3, #20]
   818bc:	2c00      	cmp	r4, #0
   818be:	f43f aed8 	beq.w	81672 <UOTGHS_Handler+0x3f6>
   818c2:	4a43      	ldr	r2, [pc, #268]	; (819d0 <UOTGHS_Handler+0x754>)
   818c4:	6899      	ldr	r1, [r3, #8]
   818c6:	6813      	ldr	r3, [r2, #0]
   818c8:	2001      	movs	r0, #1
   818ca:	f413 7f80 	tst.w	r3, #256	; 0x100
   818ce:	bf0c      	ite	eq
   818d0:	4602      	moveq	r2, r0
   818d2:	2281      	movne	r2, #129	; 0x81
   818d4:	47a0      	blx	r4
   818d6:	e6cc      	b.n	81672 <UOTGHS_Handler+0x3f6>
   818d8:	4939      	ldr	r1, [pc, #228]	; (819c0 <UOTGHS_Handler+0x744>)
   818da:	2202      	movs	r2, #2
   818dc:	2303      	movs	r3, #3
   818de:	600a      	str	r2, [r1, #0]
   818e0:	702b      	strb	r3, [r5, #0]
   818e2:	f3ef 8210 	mrs	r2, PRIMASK
   818e6:	b672      	cpsid	i
   818e8:	f3bf 8f5f 	dmb	sy
   818ec:	4c33      	ldr	r4, [pc, #204]	; (819bc <UOTGHS_Handler+0x740>)
   818ee:	4836      	ldr	r0, [pc, #216]	; (819c8 <UOTGHS_Handler+0x74c>)
   818f0:	2301      	movs	r3, #1
   818f2:	2508      	movs	r5, #8
   818f4:	2600      	movs	r6, #0
   818f6:	7006      	strb	r6, [r0, #0]
   818f8:	600b      	str	r3, [r1, #0]
   818fa:	6023      	str	r3, [r4, #0]
   818fc:	600d      	str	r5, [r1, #0]
   818fe:	6025      	str	r5, [r4, #0]
   81900:	2a00      	cmp	r2, #0
   81902:	f47f acd0 	bne.w	812a6 <UOTGHS_Handler+0x2a>
   81906:	7003      	strb	r3, [r0, #0]
   81908:	f3bf 8f5f 	dmb	sy
   8190c:	b662      	cpsie	i
   8190e:	e8bd 81f0 	ldmia.w	sp!, {r4, r5, r6, r7, r8, pc}
   81912:	492c      	ldr	r1, [pc, #176]	; (819c4 <UOTGHS_Handler+0x748>)
   81914:	788a      	ldrb	r2, [r1, #2]
   81916:	b16a      	cbz	r2, 81934 <UOTGHS_Handler+0x6b8>
   81918:	f3ef 8210 	mrs	r2, PRIMASK
   8191c:	b672      	cpsid	i
   8191e:	f3bf 8f5f 	dmb	sy
   81922:	7888      	ldrb	r0, [r1, #2]
   81924:	4d28      	ldr	r5, [pc, #160]	; (819c8 <UOTGHS_Handler+0x74c>)
   81926:	3801      	subs	r0, #1
   81928:	702b      	strb	r3, [r5, #0]
   8192a:	7088      	strb	r0, [r1, #2]
   8192c:	2a00      	cmp	r2, #0
   8192e:	f47f adb1 	bne.w	81494 <UOTGHS_Handler+0x218>
   81932:	e636      	b.n	815a2 <UOTGHS_Handler+0x326>
   81934:	e7fe      	b.n	81934 <UOTGHS_Handler+0x6b8>
   81936:	4e27      	ldr	r6, [pc, #156]	; (819d4 <UOTGHS_Handler+0x758>)
   81938:	88e0      	ldrh	r0, [r4, #6]
   8193a:	8833      	ldrh	r3, [r6, #0]
   8193c:	4a1c      	ldr	r2, [pc, #112]	; (819b0 <UOTGHS_Handler+0x734>)
   8193e:	440b      	add	r3, r1
   81940:	4298      	cmp	r0, r3
   81942:	dd8a      	ble.n	8185a <UOTGHS_Handler+0x5de>
   81944:	8993      	ldrh	r3, [r2, #12]
   81946:	428b      	cmp	r3, r1
   81948:	d023      	beq.n	81992 <UOTGHS_Handler+0x716>
   8194a:	4b1d      	ldr	r3, [pc, #116]	; (819c0 <UOTGHS_Handler+0x744>)
   8194c:	2202      	movs	r2, #2
   8194e:	2110      	movs	r1, #16
   81950:	601a      	str	r2, [r3, #0]
   81952:	6019      	str	r1, [r3, #0]
   81954:	f3ef 8310 	mrs	r3, PRIMASK
   81958:	b672      	cpsid	i
   8195a:	f3bf 8f5f 	dmb	sy
   8195e:	4a1a      	ldr	r2, [pc, #104]	; (819c8 <UOTGHS_Handler+0x74c>)
   81960:	4816      	ldr	r0, [pc, #88]	; (819bc <UOTGHS_Handler+0x740>)
   81962:	2400      	movs	r4, #0
   81964:	7014      	strb	r4, [r2, #0]
   81966:	6001      	str	r1, [r0, #0]
   81968:	2b00      	cmp	r3, #0
   8196a:	f47f ac9c 	bne.w	812a6 <UOTGHS_Handler+0x2a>
   8196e:	2301      	movs	r3, #1
   81970:	7013      	strb	r3, [r2, #0]
   81972:	f3bf 8f5f 	dmb	sy
   81976:	b662      	cpsie	i
   81978:	e8bd 81f0 	ldmia.w	sp!, {r4, r5, r6, r7, r8, pc}
   8197c:	4c15      	ldr	r4, [pc, #84]	; (819d4 <UOTGHS_Handler+0x758>)
   8197e:	480e      	ldr	r0, [pc, #56]	; (819b8 <UOTGHS_Handler+0x73c>)
   81980:	2300      	movs	r3, #0
   81982:	2102      	movs	r1, #2
   81984:	4a14      	ldr	r2, [pc, #80]	; (819d8 <UOTGHS_Handler+0x75c>)
   81986:	8023      	strh	r3, [r4, #0]
   81988:	8003      	strh	r3, [r0, #0]
   8198a:	7029      	strb	r1, [r5, #0]
   8198c:	4790      	blx	r2
   8198e:	e8bd 81f0 	ldmia.w	sp!, {r4, r5, r6, r7, r8, pc}
   81992:	6953      	ldr	r3, [r2, #20]
   81994:	2b00      	cmp	r3, #0
   81996:	f43f af67 	beq.w	81868 <UOTGHS_Handler+0x5ec>
   8199a:	4798      	blx	r3
   8199c:	2800      	cmp	r0, #0
   8199e:	f43f af63 	beq.w	81868 <UOTGHS_Handler+0x5ec>
   819a2:	8839      	ldrh	r1, [r7, #0]
   819a4:	8833      	ldrh	r3, [r6, #0]
   819a6:	2200      	movs	r2, #0
   819a8:	440b      	add	r3, r1
   819aa:	8033      	strh	r3, [r6, #0]
   819ac:	803a      	strh	r2, [r7, #0]
   819ae:	e7cc      	b.n	8194a <UOTGHS_Handler+0x6ce>
   819b0:	200707f0 	.word	0x200707f0
   819b4:	20180000 	.word	0x20180000
   819b8:	200706f6 	.word	0x200706f6
   819bc:	400ac1f0 	.word	0x400ac1f0
   819c0:	400ac160 	.word	0x400ac160
   819c4:	200707e8 	.word	0x200707e8
   819c8:	200701f6 	.word	0x200701f6
   819cc:	00080c8d 	.word	0x00080c8d
   819d0:	400ac104 	.word	0x400ac104
   819d4:	200706f2 	.word	0x200706f2
   819d8:	00080cd5 	.word	0x00080cd5

000819dc <udd_set_address>:
   819dc:	4b08      	ldr	r3, [pc, #32]	; (81a00 <udd_set_address+0x24>)
   819de:	f000 007f 	and.w	r0, r0, #127	; 0x7f
   819e2:	681a      	ldr	r2, [r3, #0]
   819e4:	f022 0280 	bic.w	r2, r2, #128	; 0x80
   819e8:	601a      	str	r2, [r3, #0]
   819ea:	681a      	ldr	r2, [r3, #0]
   819ec:	f022 027f 	bic.w	r2, r2, #127	; 0x7f
   819f0:	4310      	orrs	r0, r2
   819f2:	6018      	str	r0, [r3, #0]
   819f4:	681a      	ldr	r2, [r3, #0]
   819f6:	f042 0280 	orr.w	r2, r2, #128	; 0x80
   819fa:	601a      	str	r2, [r3, #0]
   819fc:	4770      	bx	lr
   819fe:	bf00      	nop
   81a00:	400ac000 	.word	0x400ac000

00081a04 <udd_getaddress>:
   81a04:	4b02      	ldr	r3, [pc, #8]	; (81a10 <udd_getaddress+0xc>)
   81a06:	6818      	ldr	r0, [r3, #0]
   81a08:	f000 007f 	and.w	r0, r0, #127	; 0x7f
   81a0c:	4770      	bx	lr
   81a0e:	bf00      	nop
   81a10:	400ac000 	.word	0x400ac000

00081a14 <udd_set_setup_payload>:
   81a14:	4b01      	ldr	r3, [pc, #4]	; (81a1c <udd_set_setup_payload+0x8>)
   81a16:	6098      	str	r0, [r3, #8]
   81a18:	8199      	strh	r1, [r3, #12]
   81a1a:	4770      	bx	lr
   81a1c:	200707f0 	.word	0x200707f0

00081a20 <udd_ep_free>:
   81a20:	f000 020f 	and.w	r2, r0, #15
   81a24:	2a01      	cmp	r2, #1
   81a26:	d900      	bls.n	81a2a <udd_ep_free+0xa>
   81a28:	4770      	bx	lr
   81a2a:	b5f8      	push	{r3, r4, r5, r6, r7, lr}
   81a2c:	4c1b      	ldr	r4, [pc, #108]	; (81a9c <udd_ep_free+0x7c>)
   81a2e:	2301      	movs	r3, #1
   81a30:	69e1      	ldr	r1, [r4, #28]
   81a32:	4093      	lsls	r3, r2
   81a34:	ea21 0303 	bic.w	r3, r1, r3
   81a38:	4819      	ldr	r0, [pc, #100]	; (81aa0 <udd_ep_free+0x80>)
   81a3a:	61e3      	str	r3, [r4, #28]
   81a3c:	1e55      	subs	r5, r2, #1
   81a3e:	f850 1022 	ldr.w	r1, [r0, r2, lsl #2]
   81a42:	006e      	lsls	r6, r5, #1
   81a44:	1973      	adds	r3, r6, r5
   81a46:	4c17      	ldr	r4, [pc, #92]	; (81aa4 <udd_ep_free+0x84>)
   81a48:	f021 0102 	bic.w	r1, r1, #2
   81a4c:	00db      	lsls	r3, r3, #3
   81a4e:	f840 1022 	str.w	r1, [r0, r2, lsl #2]
   81a52:	18e1      	adds	r1, r4, r3
   81a54:	7d0f      	ldrb	r7, [r1, #20]
   81a56:	ea4f 0e82 	mov.w	lr, r2, lsl #2
   81a5a:	f017 0f01 	tst.w	r7, #1
   81a5e:	d107      	bne.n	81a70 <udd_ep_free+0x50>
   81a60:	4435      	add	r5, r6
   81a62:	eb04 04c5 	add.w	r4, r4, r5, lsl #3
   81a66:	7d23      	ldrb	r3, [r4, #20]
   81a68:	f36f 0382 	bfc	r3, #2, #1
   81a6c:	7523      	strb	r3, [r4, #20]
   81a6e:	bdf8      	pop	{r3, r4, r5, r6, r7, pc}
   81a70:	46bc      	mov	ip, r7
   81a72:	58e7      	ldr	r7, [r4, r3]
   81a74:	f36f 0c00 	bfc	ip, #0, #1
   81a78:	f881 c014 	strb.w	ip, [r1, #20]
   81a7c:	2f00      	cmp	r7, #0
   81a7e:	d0ef      	beq.n	81a60 <udd_ep_free+0x40>
   81a80:	f85e 3000 	ldr.w	r3, [lr, r0]
   81a84:	2001      	movs	r0, #1
   81a86:	05db      	lsls	r3, r3, #23
   81a88:	eb06 0305 	add.w	r3, r6, r5
   81a8c:	eb04 03c3 	add.w	r3, r4, r3, lsl #3
   81a90:	bf48      	it	mi
   81a92:	f042 0280 	orrmi.w	r2, r2, #128	; 0x80
   81a96:	6899      	ldr	r1, [r3, #8]
   81a98:	47b8      	blx	r7
   81a9a:	e7e1      	b.n	81a60 <udd_ep_free+0x40>
   81a9c:	400ac000 	.word	0x400ac000
   81aa0:	400ac100 	.word	0x400ac100
   81aa4:	200706d8 	.word	0x200706d8

00081aa8 <udd_ep_is_halted>:
   81aa8:	4b03      	ldr	r3, [pc, #12]	; (81ab8 <udd_ep_is_halted+0x10>)
   81aaa:	f000 000f 	and.w	r0, r0, #15
   81aae:	f853 0020 	ldr.w	r0, [r3, r0, lsl #2]
   81ab2:	f3c0 40c0 	ubfx	r0, r0, #19, #1
   81ab6:	4770      	bx	lr
   81ab8:	400ac1c0 	.word	0x400ac1c0

00081abc <udd_ep_set_halt>:
   81abc:	f000 030f 	and.w	r3, r0, #15
   81ac0:	2b01      	cmp	r3, #1
   81ac2:	b5f0      	push	{r4, r5, r6, r7, lr}
   81ac4:	4606      	mov	r6, r0
   81ac6:	d901      	bls.n	81acc <udd_ep_set_halt+0x10>
   81ac8:	2000      	movs	r0, #0
   81aca:	bdf0      	pop	{r4, r5, r6, r7, pc}
   81acc:	4a28      	ldr	r2, [pc, #160]	; (81b70 <udd_ep_set_halt+0xb4>)
   81ace:	f852 2023 	ldr.w	r2, [r2, r3, lsl #2]
   81ad2:	0310      	lsls	r0, r2, #12
   81ad4:	d42c      	bmi.n	81b30 <udd_ep_set_halt+0x74>
   81ad6:	4927      	ldr	r1, [pc, #156]	; (81b74 <udd_ep_set_halt+0xb8>)
   81ad8:	1e5a      	subs	r2, r3, #1
   81ada:	eb02 0242 	add.w	r2, r2, r2, lsl #1
   81ade:	eb01 02c2 	add.w	r2, r1, r2, lsl #3
   81ae2:	7d11      	ldrb	r1, [r2, #20]
   81ae4:	f001 0404 	and.w	r4, r1, #4
   81ae8:	f004 05ff 	and.w	r5, r4, #255	; 0xff
   81aec:	bb04      	cbnz	r4, 81b30 <udd_ep_set_halt+0x74>
   81aee:	f011 0101 	ands.w	r1, r1, #1
   81af2:	d11f      	bne.n	81b34 <udd_ep_set_halt+0x78>
   81af4:	f3ef 8010 	mrs	r0, PRIMASK
   81af8:	fab0 f080 	clz	r0, r0
   81afc:	0940      	lsrs	r0, r0, #5
   81afe:	b672      	cpsid	i
   81b00:	f3bf 8f5f 	dmb	sy
   81b04:	4c1c      	ldr	r4, [pc, #112]	; (81b78 <udd_ep_set_halt+0xbc>)
   81b06:	7021      	strb	r1, [r4, #0]
   81b08:	0631      	lsls	r1, r6, #24
   81b0a:	d415      	bmi.n	81b38 <udd_ep_set_halt+0x7c>
   81b0c:	491b      	ldr	r1, [pc, #108]	; (81b7c <udd_ep_set_halt+0xc0>)
   81b0e:	4f1c      	ldr	r7, [pc, #112]	; (81b80 <udd_ep_set_halt+0xc4>)
   81b10:	f851 2023 	ldr.w	r2, [r1, r3, lsl #2]
   81b14:	4d1b      	ldr	r5, [pc, #108]	; (81b84 <udd_ep_set_halt+0xc8>)
   81b16:	f422 7200 	bic.w	r2, r2, #512	; 0x200
   81b1a:	f04f 0e40 	mov.w	lr, #64	; 0x40
   81b1e:	f44f 2600 	mov.w	r6, #524288	; 0x80000
   81b22:	f841 2023 	str.w	r2, [r1, r3, lsl #2]
   81b26:	f847 e023 	str.w	lr, [r7, r3, lsl #2]
   81b2a:	f845 6023 	str.w	r6, [r5, r3, lsl #2]
   81b2e:	b9c8      	cbnz	r0, 81b64 <udd_ep_set_halt+0xa8>
   81b30:	2001      	movs	r0, #1
   81b32:	bdf0      	pop	{r4, r5, r6, r7, pc}
   81b34:	4628      	mov	r0, r5
   81b36:	bdf0      	pop	{r4, r5, r6, r7, pc}
   81b38:	4913      	ldr	r1, [pc, #76]	; (81b88 <udd_ep_set_halt+0xcc>)
   81b3a:	f851 1023 	ldr.w	r1, [r1, r3, lsl #2]
   81b3e:	f411 5f40 	tst.w	r1, #12288	; 0x3000
   81b42:	d0e3      	beq.n	81b0c <udd_ep_set_halt+0x50>
   81b44:	7d11      	ldrb	r1, [r2, #20]
   81b46:	f44f 5580 	mov.w	r5, #4096	; 0x1000
   81b4a:	f8df e038 	ldr.w	lr, [pc, #56]	; 81b84 <udd_ep_set_halt+0xc8>
   81b4e:	4e0f      	ldr	r6, [pc, #60]	; (81b8c <udd_ep_set_halt+0xd0>)
   81b50:	f041 0104 	orr.w	r1, r1, #4
   81b54:	fa05 f703 	lsl.w	r7, r5, r3
   81b58:	7511      	strb	r1, [r2, #20]
   81b5a:	f84e 5023 	str.w	r5, [lr, r3, lsl #2]
   81b5e:	61b7      	str	r7, [r6, #24]
   81b60:	2800      	cmp	r0, #0
   81b62:	d0e5      	beq.n	81b30 <udd_ep_set_halt+0x74>
   81b64:	2301      	movs	r3, #1
   81b66:	7023      	strb	r3, [r4, #0]
   81b68:	f3bf 8f5f 	dmb	sy
   81b6c:	b662      	cpsie	i
   81b6e:	bdf0      	pop	{r4, r5, r6, r7, pc}
   81b70:	400ac1c0 	.word	0x400ac1c0
   81b74:	200706d8 	.word	0x200706d8
   81b78:	200701f6 	.word	0x200701f6
   81b7c:	400ac100 	.word	0x400ac100
   81b80:	400ac160 	.word	0x400ac160
   81b84:	400ac1f0 	.word	0x400ac1f0
   81b88:	400ac130 	.word	0x400ac130
   81b8c:	400ac000 	.word	0x400ac000

00081b90 <udd_ep_clear_halt>:
   81b90:	f000 000f 	and.w	r0, r0, #15
   81b94:	2801      	cmp	r0, #1
   81b96:	d901      	bls.n	81b9c <udd_ep_clear_halt+0xc>
   81b98:	2000      	movs	r0, #0
   81b9a:	4770      	bx	lr
   81b9c:	e92d 41f0 	stmdb	sp!, {r4, r5, r6, r7, r8, lr}
   81ba0:	1e43      	subs	r3, r0, #1
   81ba2:	005d      	lsls	r5, r3, #1
   81ba4:	4c26      	ldr	r4, [pc, #152]	; (81c40 <udd_ep_clear_halt+0xb0>)
   81ba6:	18ea      	adds	r2, r5, r3
   81ba8:	eb04 02c2 	add.w	r2, r4, r2, lsl #3
   81bac:	7d11      	ldrb	r1, [r2, #20]
   81bae:	074e      	lsls	r6, r1, #29
   81bb0:	d42c      	bmi.n	81c0c <udd_ep_clear_halt+0x7c>
   81bb2:	4924      	ldr	r1, [pc, #144]	; (81c44 <udd_ep_clear_halt+0xb4>)
   81bb4:	0082      	lsls	r2, r0, #2
   81bb6:	f851 1020 	ldr.w	r1, [r1, r0, lsl #2]
   81bba:	0309      	lsls	r1, r1, #12
   81bbc:	d523      	bpl.n	81c06 <udd_ep_clear_halt+0x76>
   81bbe:	4922      	ldr	r1, [pc, #136]	; (81c48 <udd_ep_clear_halt+0xb8>)
   81bc0:	4411      	add	r1, r2
   81bc2:	4822      	ldr	r0, [pc, #136]	; (81c4c <udd_ep_clear_halt+0xbc>)
   81bc4:	5810      	ldr	r0, [r2, r0]
   81bc6:	0646      	lsls	r6, r0, #25
   81bc8:	d508      	bpl.n	81bdc <udd_ep_clear_halt+0x4c>
   81bca:	4f21      	ldr	r7, [pc, #132]	; (81c50 <udd_ep_clear_halt+0xc0>)
   81bcc:	4821      	ldr	r0, [pc, #132]	; (81c54 <udd_ep_clear_halt+0xc4>)
   81bce:	f04f 0e40 	mov.w	lr, #64	; 0x40
   81bd2:	f44f 2680 	mov.w	r6, #262144	; 0x40000
   81bd6:	f842 e007 	str.w	lr, [r2, r7]
   81bda:	5016      	str	r6, [r2, r0]
   81bdc:	481e      	ldr	r0, [pc, #120]	; (81c58 <udd_ep_clear_halt+0xc8>)
   81bde:	f44f 2600 	mov.w	r6, #524288	; 0x80000
   81be2:	600e      	str	r6, [r1, #0]
   81be4:	5811      	ldr	r1, [r2, r0]
   81be6:	f441 7100 	orr.w	r1, r1, #512	; 0x200
   81bea:	5011      	str	r1, [r2, r0]
   81bec:	442b      	add	r3, r5
   81bee:	00db      	lsls	r3, r3, #3
   81bf0:	441c      	add	r4, r3
   81bf2:	7d22      	ldrb	r2, [r4, #20]
   81bf4:	4912      	ldr	r1, [pc, #72]	; (81c40 <udd_ep_clear_halt+0xb0>)
   81bf6:	07d0      	lsls	r0, r2, #31
   81bf8:	d505      	bpl.n	81c06 <udd_ep_clear_halt+0x76>
   81bfa:	7d22      	ldrb	r2, [r4, #20]
   81bfc:	58cb      	ldr	r3, [r1, r3]
   81bfe:	f36f 0200 	bfc	r2, #0, #1
   81c02:	7522      	strb	r2, [r4, #20]
   81c04:	4798      	blx	r3
   81c06:	2001      	movs	r0, #1
   81c08:	e8bd 81f0 	ldmia.w	sp!, {r4, r5, r6, r7, r8, pc}
   81c0c:	460e      	mov	r6, r1
   81c0e:	f8df 8038 	ldr.w	r8, [pc, #56]	; 81c48 <udd_ep_clear_halt+0xb8>
   81c12:	f44f 5180 	mov.w	r1, #4096	; 0x1000
   81c16:	f36f 0682 	bfc	r6, #2, #1
   81c1a:	7516      	strb	r6, [r2, #20]
   81c1c:	fa01 fc00 	lsl.w	ip, r1, r0
   81c20:	f848 1020 	str.w	r1, [r8, r0, lsl #2]
   81c24:	4641      	mov	r1, r8
   81c26:	f8df e034 	ldr.w	lr, [pc, #52]	; 81c5c <udd_ep_clear_halt+0xcc>
   81c2a:	4f06      	ldr	r7, [pc, #24]	; (81c44 <udd_ep_clear_halt+0xb4>)
   81c2c:	f8ce c014 	str.w	ip, [lr, #20]
   81c30:	f857 6020 	ldr.w	r6, [r7, r0, lsl #2]
   81c34:	0082      	lsls	r2, r0, #2
   81c36:	0337      	lsls	r7, r6, #12
   81c38:	4411      	add	r1, r2
   81c3a:	d5d7      	bpl.n	81bec <udd_ep_clear_halt+0x5c>
   81c3c:	e7c1      	b.n	81bc2 <udd_ep_clear_halt+0x32>
   81c3e:	bf00      	nop
   81c40:	200706d8 	.word	0x200706d8
   81c44:	400ac1c0 	.word	0x400ac1c0
   81c48:	400ac220 	.word	0x400ac220
   81c4c:	400ac130 	.word	0x400ac130
   81c50:	400ac160 	.word	0x400ac160
   81c54:	400ac1f0 	.word	0x400ac1f0
   81c58:	400ac100 	.word	0x400ac100
   81c5c:	400ac000 	.word	0x400ac000

00081c60 <udd_ep_run>:
   81c60:	f000 000f 	and.w	r0, r0, #15
   81c64:	2801      	cmp	r0, #1
   81c66:	d901      	bls.n	81c6c <udd_ep_run+0xc>
   81c68:	2000      	movs	r0, #0
   81c6a:	4770      	bx	lr
   81c6c:	e92d 47f0 	stmdb	sp!, {r4, r5, r6, r7, r8, r9, sl, lr}
   81c70:	4c33      	ldr	r4, [pc, #204]	; (81d40 <udd_ep_run+0xe0>)
   81c72:	2701      	movs	r7, #1
   81c74:	69e4      	ldr	r4, [r4, #28]
   81c76:	fa07 f500 	lsl.w	r5, r7, r0
   81c7a:	4225      	tst	r5, r4
   81c7c:	d04b      	beq.n	81d16 <udd_ep_run+0xb6>
   81c7e:	4c31      	ldr	r4, [pc, #196]	; (81d44 <udd_ep_run+0xe4>)
   81c80:	f854 4020 	ldr.w	r4, [r4, r0, lsl #2]
   81c84:	0324      	lsls	r4, r4, #12
   81c86:	d446      	bmi.n	81d16 <udd_ep_run+0xb6>
   81c88:	f100 3cff 	add.w	ip, r0, #4294967295
   81c8c:	fa0c f807 	lsl.w	r8, ip, r7
   81c90:	f8df e0b8 	ldr.w	lr, [pc, #184]	; 81d4c <udd_ep_run+0xec>
   81c94:	eb08 050c 	add.w	r5, r8, ip
   81c98:	eb0e 05c5 	add.w	r5, lr, r5, lsl #3
   81c9c:	7d2e      	ldrb	r6, [r5, #20]
   81c9e:	f006 0604 	and.w	r6, r6, #4
   81ca2:	f006 04ff 	and.w	r4, r6, #255	; 0xff
   81ca6:	bbb6      	cbnz	r6, 81d16 <udd_ep_run+0xb6>
   81ca8:	f3ef 8610 	mrs	r6, PRIMASK
   81cac:	fab6 f686 	clz	r6, r6
   81cb0:	0976      	lsrs	r6, r6, #5
   81cb2:	b672      	cpsid	i
   81cb4:	f3bf 8f5f 	dmb	sy
   81cb8:	f895 a014 	ldrb.w	sl, [r5, #20]
   81cbc:	f8df 9090 	ldr.w	r9, [pc, #144]	; 81d50 <udd_ep_run+0xf0>
   81cc0:	f01a 0f01 	tst.w	sl, #1
   81cc4:	f889 4000 	strb.w	r4, [r9]
   81cc8:	d128      	bne.n	81d1c <udd_ep_run+0xbc>
   81cca:	7d2c      	ldrb	r4, [r5, #20]
   81ccc:	f044 0401 	orr.w	r4, r4, #1
   81cd0:	752c      	strb	r4, [r5, #20]
   81cd2:	bb7e      	cbnz	r6, 81d34 <udd_ep_run+0xd4>
   81cd4:	eb08 050c 	add.w	r5, r8, ip
   81cd8:	00ed      	lsls	r5, r5, #3
   81cda:	9e08      	ldr	r6, [sp, #32]
   81cdc:	eb0e 0405 	add.w	r4, lr, r5
   81ce0:	f04f 0900 	mov.w	r9, #0
   81ce4:	f84e 6005 	str.w	r6, [lr, r5]
   81ce8:	6062      	str	r2, [r4, #4]
   81cea:	60a3      	str	r3, [r4, #8]
   81cec:	f8c4 900c 	str.w	r9, [r4, #12]
   81cf0:	f8c4 9010 	str.w	r9, [r4, #16]
   81cf4:	b9e1      	cbnz	r1, 81d30 <udd_ep_run+0xd0>
   81cf6:	fab3 f383 	clz	r3, r3
   81cfa:	095b      	lsrs	r3, r3, #5
   81cfc:	eb08 020c 	add.w	r2, r8, ip
   81d00:	eb0e 02c2 	add.w	r2, lr, r2, lsl #3
   81d04:	7d11      	ldrb	r1, [r2, #20]
   81d06:	f363 0141 	bfi	r1, r3, #1, #1
   81d0a:	7511      	strb	r1, [r2, #20]
   81d0c:	4b0e      	ldr	r3, [pc, #56]	; (81d48 <udd_ep_run+0xe8>)
   81d0e:	4798      	blx	r3
   81d10:	2001      	movs	r0, #1
   81d12:	e8bd 87f0 	ldmia.w	sp!, {r4, r5, r6, r7, r8, r9, sl, pc}
   81d16:	2000      	movs	r0, #0
   81d18:	e8bd 87f0 	ldmia.w	sp!, {r4, r5, r6, r7, r8, r9, sl, pc}
   81d1c:	2e00      	cmp	r6, #0
   81d1e:	d0fa      	beq.n	81d16 <udd_ep_run+0xb6>
   81d20:	f889 7000 	strb.w	r7, [r9]
   81d24:	f3bf 8f5f 	dmb	sy
   81d28:	b662      	cpsie	i
   81d2a:	4620      	mov	r0, r4
   81d2c:	e8bd 87f0 	ldmia.w	sp!, {r4, r5, r6, r7, r8, r9, sl, pc}
   81d30:	2301      	movs	r3, #1
   81d32:	e7e3      	b.n	81cfc <udd_ep_run+0x9c>
   81d34:	f889 7000 	strb.w	r7, [r9]
   81d38:	f3bf 8f5f 	dmb	sy
   81d3c:	b662      	cpsie	i
   81d3e:	e7c9      	b.n	81cd4 <udd_ep_run+0x74>
   81d40:	400ac000 	.word	0x400ac000
   81d44:	400ac1c0 	.word	0x400ac1c0
   81d48:	00080e7d 	.word	0x00080e7d
   81d4c:	200706d8 	.word	0x200706d8
   81d50:	200701f6 	.word	0x200701f6

00081d54 <udd_ep_alloc>:
   81d54:	e92d 4ff0 	stmdb	sp!, {r4, r5, r6, r7, r8, r9, sl, fp, lr}
   81d58:	f000 040f 	and.w	r4, r0, #15
   81d5c:	2c01      	cmp	r4, #1
   81d5e:	b083      	sub	sp, #12
   81d60:	d903      	bls.n	81d6a <udd_ep_alloc+0x16>
   81d62:	2000      	movs	r0, #0
   81d64:	b003      	add	sp, #12
   81d66:	e8bd 8ff0 	ldmia.w	sp!, {r4, r5, r6, r7, r8, r9, sl, fp, pc}
   81d6a:	4d65      	ldr	r5, [pc, #404]	; (81f00 <udd_ep_alloc+0x1ac>)
   81d6c:	2301      	movs	r3, #1
   81d6e:	69ed      	ldr	r5, [r5, #28]
   81d70:	40a3      	lsls	r3, r4
   81d72:	402b      	ands	r3, r5
   81d74:	d1f5      	bne.n	81d62 <udd_ep_alloc+0xe>
   81d76:	f011 0503 	ands.w	r5, r1, #3
   81d7a:	d0f2      	beq.n	81d62 <udd_ep_alloc+0xe>
   81d7c:	2d02      	cmp	r5, #2
   81d7e:	f240 80a0 	bls.w	81ec2 <udd_ep_alloc+0x16e>
   81d82:	2d03      	cmp	r5, #3
   81d84:	d1ed      	bne.n	81d62 <udd_ep_alloc+0xe>
   81d86:	461e      	mov	r6, r3
   81d88:	4d5e      	ldr	r5, [pc, #376]	; (81f04 <udd_ep_alloc+0x1b0>)
   81d8a:	f5a2 6780 	sub.w	r7, r2, #1024	; 0x400
   81d8e:	f855 e024 	ldr.w	lr, [r5, r4, lsl #2]
   81d92:	f010 0f80 	tst.w	r0, #128	; 0x80
   81d96:	b2bf      	uxth	r7, r7
   81d98:	f42e 50cb 	bic.w	r0, lr, #6496	; 0x1960
   81d9c:	ea4f 21c1 	mov.w	r1, r1, lsl #11
   81da0:	bf14      	ite	ne
   81da2:	f44f 7c80 	movne.w	ip, #256	; 0x100
   81da6:	f04f 0c00 	moveq.w	ip, #0
   81daa:	f5b7 4f7c 	cmp.w	r7, #64512	; 0xfc00
   81dae:	f401 51c0 	and.w	r1, r1, #6144	; 0x1800
   81db2:	f020 001c 	bic.w	r0, r0, #28
   81db6:	ea4f 0e84 	mov.w	lr, r4, lsl #2
   81dba:	f0c0 8084 	bcc.w	81ec6 <udd_ep_alloc+0x172>
   81dbe:	2a08      	cmp	r2, #8
   81dc0:	f200 8083 	bhi.w	81eca <udd_ep_alloc+0x176>
   81dc4:	f641 127c 	movw	r2, #6524	; 0x197c
   81dc8:	4331      	orrs	r1, r6
   81dca:	ea41 0c0c 	orr.w	ip, r1, ip
   81dce:	ea4c 0303 	orr.w	r3, ip, r3
   81dd2:	401a      	ands	r2, r3
   81dd4:	2301      	movs	r3, #1
   81dd6:	4310      	orrs	r0, r2
   81dd8:	40a3      	lsls	r3, r4
   81dda:	f84e 0005 	str.w	r0, [lr, r5]
   81dde:	b29f      	uxth	r7, r3
   81de0:	b97c      	cbnz	r4, 81e02 <udd_ep_alloc+0xae>
   81de2:	4a47      	ldr	r2, [pc, #284]	; (81f00 <udd_ep_alloc+0x1ac>)
   81de4:	69d1      	ldr	r1, [r2, #28]
   81de6:	0789      	lsls	r1, r1, #30
   81de8:	d50b      	bpl.n	81e02 <udd_ep_alloc+0xae>
   81dea:	69d1      	ldr	r1, [r2, #28]
   81dec:	4846      	ldr	r0, [pc, #280]	; (81f08 <udd_ep_alloc+0x1b4>)
   81dee:	f021 0102 	bic.w	r1, r1, #2
   81df2:	61d1      	str	r1, [r2, #28]
   81df4:	6802      	ldr	r2, [r0, #0]
   81df6:	f043 0702 	orr.w	r7, r3, #2
   81dfa:	f022 0302 	bic.w	r3, r2, #2
   81dfe:	b2bf      	uxth	r7, r7
   81e00:	6003      	str	r3, [r0, #0]
   81e02:	4e42      	ldr	r6, [pc, #264]	; (81f0c <udd_ep_alloc+0x1b8>)
   81e04:	f8df 80f8 	ldr.w	r8, [pc, #248]	; 81f00 <udd_ep_alloc+0x1ac>
   81e08:	e000      	b.n	81e0c <udd_ep_alloc+0xb8>
   81e0a:	2401      	movs	r4, #1
   81e0c:	1e65      	subs	r5, r4, #1
   81e0e:	ea4f 0c45 	mov.w	ip, r5, lsl #1
   81e12:	eb0c 0105 	add.w	r1, ip, r5
   81e16:	4a3b      	ldr	r2, [pc, #236]	; (81f04 <udd_ep_alloc+0x1b0>)
   81e18:	483d      	ldr	r0, [pc, #244]	; (81f10 <udd_ep_alloc+0x1bc>)
   81e1a:	fa47 f304 	asr.w	r3, r7, r4
   81e1e:	ea4f 0984 	mov.w	r9, r4, lsl #2
   81e22:	eb06 01c1 	add.w	r1, r6, r1, lsl #3
   81e26:	f04f 0e01 	mov.w	lr, #1
   81e2a:	07db      	lsls	r3, r3, #31
   81e2c:	f101 0a10 	add.w	sl, r1, #16
   81e30:	444a      	add	r2, r9
   81e32:	fa0e fe04 	lsl.w	lr, lr, r4
   81e36:	4448      	add	r0, r9
   81e38:	d53f      	bpl.n	81eba <udd_ep_alloc+0x166>
   81e3a:	f89a 3004 	ldrb.w	r3, [sl, #4]
   81e3e:	f101 0908 	add.w	r9, r1, #8
   81e42:	469b      	mov	fp, r3
   81e44:	f36f 0b00 	bfc	fp, #0, #1
   81e48:	f88a b004 	strb.w	fp, [sl, #4]
   81e4c:	f8d2 a000 	ldr.w	sl, [r2]
   81e50:	f003 0301 	and.w	r3, r3, #1
   81e54:	f04a 0a02 	orr.w	sl, sl, #2
   81e58:	f8c2 a000 	str.w	sl, [r2]
   81e5c:	f8d8 a01c 	ldr.w	sl, [r8, #28]
   81e60:	ea4e 0e0a 	orr.w	lr, lr, sl
   81e64:	f8c8 e01c 	str.w	lr, [r8, #28]
   81e68:	6800      	ldr	r0, [r0, #0]
   81e6a:	0340      	lsls	r0, r0, #13
   81e6c:	d535      	bpl.n	81eda <udd_ep_alloc+0x186>
   81e6e:	6810      	ldr	r0, [r2, #0]
   81e70:	f440 7000 	orr.w	r0, r0, #512	; 0x200
   81e74:	6010      	str	r0, [r2, #0]
   81e76:	b303      	cbz	r3, 81eba <udd_ep_alloc+0x166>
   81e78:	6909      	ldr	r1, [r1, #16]
   81e7a:	f8d9 3004 	ldr.w	r3, [r9, #4]
   81e7e:	4465      	add	r5, ip
   81e80:	1a5b      	subs	r3, r3, r1
   81e82:	f8c9 3004 	str.w	r3, [r9, #4]
   81e86:	6812      	ldr	r2, [r2, #0]
   81e88:	eb06 0ec5 	add.w	lr, r6, r5, lsl #3
   81e8c:	05d2      	lsls	r2, r2, #23
   81e8e:	f856 2035 	ldr.w	r2, [r6, r5, lsl #3]
   81e92:	f044 0080 	orr.w	r0, r4, #128	; 0x80
   81e96:	9200      	str	r2, [sp, #0]
   81e98:	f8de 5008 	ldr.w	r5, [lr, #8]
   81e9c:	f89e 1014 	ldrb.w	r1, [lr, #20]
   81ea0:	f8de 2004 	ldr.w	r2, [lr, #4]
   81ea4:	bf58      	it	pl
   81ea6:	4620      	movpl	r0, r4
   81ea8:	441a      	add	r2, r3
   81eaa:	f3c1 0140 	ubfx	r1, r1, #1, #1
   81eae:	1aeb      	subs	r3, r5, r3
   81eb0:	4d18      	ldr	r5, [pc, #96]	; (81f14 <udd_ep_alloc+0x1c0>)
   81eb2:	47a8      	blx	r5
   81eb4:	2800      	cmp	r0, #0
   81eb6:	f43f af54 	beq.w	81d62 <udd_ep_alloc+0xe>
   81eba:	2c01      	cmp	r4, #1
   81ebc:	d1a5      	bne.n	81e0a <udd_ep_alloc+0xb6>
   81ebe:	4620      	mov	r0, r4
   81ec0:	e750      	b.n	81d64 <udd_ep_alloc+0x10>
   81ec2:	2604      	movs	r6, #4
   81ec4:	e760      	b.n	81d88 <udd_ep_alloc+0x34>
   81ec6:	2370      	movs	r3, #112	; 0x70
   81ec8:	e77c      	b.n	81dc4 <udd_ep_alloc+0x70>
   81eca:	0053      	lsls	r3, r2, #1
   81ecc:	3b01      	subs	r3, #1
   81ece:	fab3 f383 	clz	r3, r3
   81ed2:	f1c3 031c 	rsb	r3, r3, #28
   81ed6:	011b      	lsls	r3, r3, #4
   81ed8:	e774      	b.n	81dc4 <udd_ep_alloc+0x70>
   81eda:	680b      	ldr	r3, [r1, #0]
   81edc:	2b00      	cmp	r3, #0
   81ede:	f43f af40 	beq.w	81d62 <udd_ep_alloc+0xe>
   81ee2:	6812      	ldr	r2, [r2, #0]
   81ee4:	4465      	add	r5, ip
   81ee6:	05d1      	lsls	r1, r2, #23
   81ee8:	4a08      	ldr	r2, [pc, #32]	; (81f0c <udd_ep_alloc+0x1b8>)
   81eea:	bf48      	it	mi
   81eec:	f044 0480 	orrmi.w	r4, r4, #128	; 0x80
   81ef0:	eb02 05c5 	add.w	r5, r2, r5, lsl #3
   81ef4:	2001      	movs	r0, #1
   81ef6:	68e9      	ldr	r1, [r5, #12]
   81ef8:	4622      	mov	r2, r4
   81efa:	4798      	blx	r3
   81efc:	2000      	movs	r0, #0
   81efe:	e731      	b.n	81d64 <udd_ep_alloc+0x10>
   81f00:	400ac000 	.word	0x400ac000
   81f04:	400ac100 	.word	0x400ac100
   81f08:	400ac104 	.word	0x400ac104
   81f0c:	200706d8 	.word	0x200706d8
   81f10:	400ac130 	.word	0x400ac130
   81f14:	00081c61 	.word	0x00081c61

00081f18 <udd_ep_abort>:
   81f18:	f000 020f 	and.w	r2, r0, #15
   81f1c:	4921      	ldr	r1, [pc, #132]	; (81fa4 <udd_ep_abort+0x8c>)
   81f1e:	b4f0      	push	{r4, r5, r6, r7}
   81f20:	4e21      	ldr	r6, [pc, #132]	; (81fa8 <udd_ep_abort+0x90>)
   81f22:	0117      	lsls	r7, r2, #4
   81f24:	1e54      	subs	r4, r2, #1
   81f26:	f04f 7500 	mov.w	r5, #33554432	; 0x2000000
   81f2a:	4439      	add	r1, r7
   81f2c:	f44f 5380 	mov.w	r3, #4096	; 0x1000
   81f30:	2700      	movs	r7, #0
   81f32:	40a5      	lsls	r5, r4
   81f34:	6175      	str	r5, [r6, #20]
   81f36:	4093      	lsls	r3, r2
   81f38:	608f      	str	r7, [r1, #8]
   81f3a:	0607      	lsls	r7, r0, #24
   81f3c:	6173      	str	r3, [r6, #20]
   81f3e:	d41e      	bmi.n	81f7e <udd_ep_abort+0x66>
   81f40:	0065      	lsls	r5, r4, #1
   81f42:	192b      	adds	r3, r5, r4
   81f44:	4819      	ldr	r0, [pc, #100]	; (81fac <udd_ep_abort+0x94>)
   81f46:	00db      	lsls	r3, r3, #3
   81f48:	18c1      	adds	r1, r0, r3
   81f4a:	7d0e      	ldrb	r6, [r1, #20]
   81f4c:	07f6      	lsls	r6, r6, #31
   81f4e:	d401      	bmi.n	81f54 <udd_ep_abort+0x3c>
   81f50:	bcf0      	pop	{r4, r5, r6, r7}
   81f52:	4770      	bx	lr
   81f54:	7d0e      	ldrb	r6, [r1, #20]
   81f56:	58c3      	ldr	r3, [r0, r3]
   81f58:	f36f 0600 	bfc	r6, #0, #1
   81f5c:	750e      	strb	r6, [r1, #20]
   81f5e:	2b00      	cmp	r3, #0
   81f60:	d0f6      	beq.n	81f50 <udd_ep_abort+0x38>
   81f62:	4913      	ldr	r1, [pc, #76]	; (81fb0 <udd_ep_abort+0x98>)
   81f64:	442c      	add	r4, r5
   81f66:	f851 1022 	ldr.w	r1, [r1, r2, lsl #2]
   81f6a:	eb00 04c4 	add.w	r4, r0, r4, lsl #3
   81f6e:	05c9      	lsls	r1, r1, #23
   81f70:	bf48      	it	mi
   81f72:	f042 0280 	orrmi.w	r2, r2, #128	; 0x80
   81f76:	68a1      	ldr	r1, [r4, #8]
   81f78:	2001      	movs	r0, #1
   81f7a:	bcf0      	pop	{r4, r5, r6, r7}
   81f7c:	4718      	bx	r3
   81f7e:	480d      	ldr	r0, [pc, #52]	; (81fb4 <udd_ep_abort+0x9c>)
   81f80:	4d0d      	ldr	r5, [pc, #52]	; (81fb8 <udd_ep_abort+0xa0>)
   81f82:	490e      	ldr	r1, [pc, #56]	; (81fbc <udd_ep_abort+0xa4>)
   81f84:	0093      	lsls	r3, r2, #2
   81f86:	4418      	add	r0, r3
   81f88:	441d      	add	r5, r3
   81f8a:	4419      	add	r1, r3
   81f8c:	f44f 5600 	mov.w	r6, #8192	; 0x2000
   81f90:	6803      	ldr	r3, [r0, #0]
   81f92:	f413 5f40 	tst.w	r3, #12288	; 0x3000
   81f96:	d0d3      	beq.n	81f40 <udd_ep_abort+0x28>
   81f98:	602e      	str	r6, [r5, #0]
   81f9a:	680b      	ldr	r3, [r1, #0]
   81f9c:	049f      	lsls	r7, r3, #18
   81f9e:	d4fc      	bmi.n	81f9a <udd_ep_abort+0x82>
   81fa0:	e7f6      	b.n	81f90 <udd_ep_abort+0x78>
   81fa2:	bf00      	nop
   81fa4:	400ac300 	.word	0x400ac300
   81fa8:	400ac000 	.word	0x400ac000
   81fac:	200706d8 	.word	0x200706d8
   81fb0:	400ac100 	.word	0x400ac100
   81fb4:	400ac130 	.word	0x400ac130
   81fb8:	400ac1f0 	.word	0x400ac1f0
   81fbc:	400ac1c0 	.word	0x400ac1c0

00081fc0 <udi_hid_setup>:
   81fc0:	b570      	push	{r4, r5, r6, lr}
   81fc2:	4d2d      	ldr	r5, [pc, #180]	; (82078 <udi_hid_setup+0xb8>)
   81fc4:	782c      	ldrb	r4, [r5, #0]
   81fc6:	0626      	lsls	r6, r4, #24
   81fc8:	d410      	bmi.n	81fec <udi_hid_setup+0x2c>
   81fca:	f004 0460 	and.w	r4, r4, #96	; 0x60
   81fce:	2c20      	cmp	r4, #32
   81fd0:	d002      	beq.n	81fd8 <udi_hid_setup+0x18>
   81fd2:	2400      	movs	r4, #0
   81fd4:	4620      	mov	r0, r4
   81fd6:	bd70      	pop	{r4, r5, r6, pc}
   81fd8:	786a      	ldrb	r2, [r5, #1]
   81fda:	2a0a      	cmp	r2, #10
   81fdc:	d033      	beq.n	82046 <udi_hid_setup+0x86>
   81fde:	2a0b      	cmp	r2, #11
   81fe0:	d02a      	beq.n	82038 <udi_hid_setup+0x78>
   81fe2:	2a09      	cmp	r2, #9
   81fe4:	d1f5      	bne.n	81fd2 <udi_hid_setup+0x12>
   81fe6:	e8bd 4070 	ldmia.w	sp!, {r4, r5, r6, lr}
   81fea:	4718      	bx	r3
   81fec:	f014 0460 	ands.w	r4, r4, #96	; 0x60
   81ff0:	d009      	beq.n	82006 <udi_hid_setup+0x46>
   81ff2:	2c20      	cmp	r4, #32
   81ff4:	d1ed      	bne.n	81fd2 <udi_hid_setup+0x12>
   81ff6:	786a      	ldrb	r2, [r5, #1]
   81ff8:	2a02      	cmp	r2, #2
   81ffa:	d02d      	beq.n	82058 <udi_hid_setup+0x98>
   81ffc:	2a03      	cmp	r2, #3
   81ffe:	d027      	beq.n	82050 <udi_hid_setup+0x90>
   82000:	2a01      	cmp	r2, #1
   82002:	d1e6      	bne.n	81fd2 <udi_hid_setup+0x12>
   82004:	e7ef      	b.n	81fe6 <udi_hid_setup+0x26>
   82006:	786b      	ldrb	r3, [r5, #1]
   82008:	2b06      	cmp	r3, #6
   8200a:	d1e3      	bne.n	81fd4 <udi_hid_setup+0x14>
   8200c:	4b1b      	ldr	r3, [pc, #108]	; (8207c <udi_hid_setup+0xbc>)
   8200e:	4614      	mov	r4, r2
   82010:	4798      	blx	r3
   82012:	7a83      	ldrb	r3, [r0, #10]
   82014:	2b21      	cmp	r3, #33	; 0x21
   82016:	d1dc      	bne.n	81fd2 <udi_hid_setup+0x12>
   82018:	886b      	ldrh	r3, [r5, #2]
   8201a:	0a1b      	lsrs	r3, r3, #8
   8201c:	2b21      	cmp	r3, #33	; 0x21
   8201e:	d01f      	beq.n	82060 <udi_hid_setup+0xa0>
   82020:	7bc2      	ldrb	r2, [r0, #15]
   82022:	429a      	cmp	r2, r3
   82024:	d1d5      	bne.n	81fd2 <udi_hid_setup+0x12>
   82026:	60ac      	str	r4, [r5, #8]
   82028:	8a03      	ldrh	r3, [r0, #16]
   8202a:	88ea      	ldrh	r2, [r5, #6]
   8202c:	2401      	movs	r4, #1
   8202e:	4293      	cmp	r3, r2
   82030:	bf28      	it	cs
   82032:	4613      	movcs	r3, r2
   82034:	81ab      	strh	r3, [r5, #12]
   82036:	e7cd      	b.n	81fd4 <udi_hid_setup+0x14>
   82038:	88eb      	ldrh	r3, [r5, #6]
   8203a:	2b00      	cmp	r3, #0
   8203c:	d1c9      	bne.n	81fd2 <udi_hid_setup+0x12>
   8203e:	886b      	ldrh	r3, [r5, #2]
   82040:	2401      	movs	r4, #1
   82042:	700b      	strb	r3, [r1, #0]
   82044:	e7c6      	b.n	81fd4 <udi_hid_setup+0x14>
   82046:	886b      	ldrh	r3, [r5, #2]
   82048:	2401      	movs	r4, #1
   8204a:	0a1b      	lsrs	r3, r3, #8
   8204c:	7003      	strb	r3, [r0, #0]
   8204e:	e7c1      	b.n	81fd4 <udi_hid_setup+0x14>
   82050:	2401      	movs	r4, #1
   82052:	60a9      	str	r1, [r5, #8]
   82054:	81ac      	strh	r4, [r5, #12]
   82056:	e7bd      	b.n	81fd4 <udi_hid_setup+0x14>
   82058:	2401      	movs	r4, #1
   8205a:	60a8      	str	r0, [r5, #8]
   8205c:	81ac      	strh	r4, [r5, #12]
   8205e:	e7b9      	b.n	81fd4 <udi_hid_setup+0x14>
   82060:	f100 0309 	add.w	r3, r0, #9
   82064:	60ab      	str	r3, [r5, #8]
   82066:	7a42      	ldrb	r2, [r0, #9]
   82068:	88eb      	ldrh	r3, [r5, #6]
   8206a:	2401      	movs	r4, #1
   8206c:	4293      	cmp	r3, r2
   8206e:	bf28      	it	cs
   82070:	4613      	movcs	r3, r2
   82072:	81ab      	strh	r3, [r5, #12]
   82074:	e7ae      	b.n	81fd4 <udi_hid_setup+0x14>
   82076:	bf00      	nop
   82078:	200707f0 	.word	0x200707f0
   8207c:	00080549 	.word	0x00080549

00082080 <sysclk_enable_usb>:
   82080:	b508      	push	{r3, lr}
   82082:	4b04      	ldr	r3, [pc, #16]	; (82094 <sysclk_enable_usb+0x14>)
   82084:	4798      	blx	r3
   82086:	2000      	movs	r0, #0
   82088:	4b03      	ldr	r3, [pc, #12]	; (82098 <sysclk_enable_usb+0x18>)
   8208a:	4798      	blx	r3
   8208c:	4b03      	ldr	r3, [pc, #12]	; (8209c <sysclk_enable_usb+0x1c>)
   8208e:	4798      	blx	r3
   82090:	bd08      	pop	{r3, pc}
   82092:	bf00      	nop
   82094:	00082799 	.word	0x00082799
   82098:	000827f1 	.word	0x000827f1
   8209c:	00082805 	.word	0x00082805

000820a0 <sysclk_init>:
   820a0:	b538      	push	{r3, r4, r5, lr}
   820a2:	480e      	ldr	r0, [pc, #56]	; (820dc <sysclk_init+0x3c>)
   820a4:	4d0e      	ldr	r5, [pc, #56]	; (820e0 <sysclk_init+0x40>)
   820a6:	47a8      	blx	r5
   820a8:	2000      	movs	r0, #0
   820aa:	213e      	movs	r1, #62	; 0x3e
   820ac:	4b0d      	ldr	r3, [pc, #52]	; (820e4 <sysclk_init+0x44>)
   820ae:	4798      	blx	r3
   820b0:	4c0d      	ldr	r4, [pc, #52]	; (820e8 <sysclk_init+0x48>)
   820b2:	47a0      	blx	r4
   820b4:	2800      	cmp	r0, #0
   820b6:	d0fc      	beq.n	820b2 <sysclk_init+0x12>
   820b8:	4b0c      	ldr	r3, [pc, #48]	; (820ec <sysclk_init+0x4c>)
   820ba:	4798      	blx	r3
   820bc:	4b0c      	ldr	r3, [pc, #48]	; (820f0 <sysclk_init+0x50>)
   820be:	4a0d      	ldr	r2, [pc, #52]	; (820f4 <sysclk_init+0x54>)
   820c0:	4c0d      	ldr	r4, [pc, #52]	; (820f8 <sysclk_init+0x58>)
   820c2:	629a      	str	r2, [r3, #40]	; 0x28
   820c4:	47a0      	blx	r4
   820c6:	2800      	cmp	r0, #0
   820c8:	d0fc      	beq.n	820c4 <sysclk_init+0x24>
   820ca:	4b0c      	ldr	r3, [pc, #48]	; (820fc <sysclk_init+0x5c>)
   820cc:	2010      	movs	r0, #16
   820ce:	4798      	blx	r3
   820d0:	4b0b      	ldr	r3, [pc, #44]	; (82100 <sysclk_init+0x60>)
   820d2:	4798      	blx	r3
   820d4:	4801      	ldr	r0, [pc, #4]	; (820dc <sysclk_init+0x3c>)
   820d6:	47a8      	blx	r5
   820d8:	bd38      	pop	{r3, r4, r5, pc}
   820da:	bf00      	nop
   820dc:	0501bd00 	.word	0x0501bd00
   820e0:	20070099 	.word	0x20070099
   820e4:	00082715 	.word	0x00082715
   820e8:	00082769 	.word	0x00082769
   820ec:	00082779 	.word	0x00082779
   820f0:	400e0600 	.word	0x400e0600
   820f4:	200d3f01 	.word	0x200d3f01
   820f8:	00082789 	.word	0x00082789
   820fc:	000826b9 	.word	0x000826b9
   82100:	000828c5 	.word	0x000828c5

00082104 <board_init>:
   82104:	4b17      	ldr	r3, [pc, #92]	; (82164 <board_init+0x60>)
   82106:	f44f 4200 	mov.w	r2, #32768	; 0x8000
   8210a:	b510      	push	{r4, lr}
   8210c:	200b      	movs	r0, #11
   8210e:	605a      	str	r2, [r3, #4]
   82110:	4c15      	ldr	r4, [pc, #84]	; (82168 <board_init+0x64>)
   82112:	47a0      	blx	r4
   82114:	200c      	movs	r0, #12
   82116:	47a0      	blx	r4
   82118:	200d      	movs	r0, #13
   8211a:	47a0      	blx	r4
   8211c:	200e      	movs	r0, #14
   8211e:	47a0      	blx	r4
   82120:	4c12      	ldr	r4, [pc, #72]	; (8216c <board_init+0x68>)
   82122:	f04f 5160 	mov.w	r1, #939524096	; 0x38000000
   82126:	203b      	movs	r0, #59	; 0x3b
   82128:	47a0      	blx	r4
   8212a:	f04f 5160 	mov.w	r1, #939524096	; 0x38000000
   8212e:	2055      	movs	r0, #85	; 0x55
   82130:	47a0      	blx	r4
   82132:	f04f 5160 	mov.w	r1, #939524096	; 0x38000000
   82136:	2056      	movs	r0, #86	; 0x56
   82138:	47a0      	blx	r4
   8213a:	490d      	ldr	r1, [pc, #52]	; (82170 <board_init+0x6c>)
   8213c:	2068      	movs	r0, #104	; 0x68
   8213e:	47a0      	blx	r4
   82140:	490c      	ldr	r1, [pc, #48]	; (82174 <board_init+0x70>)
   82142:	205c      	movs	r0, #92	; 0x5c
   82144:	47a0      	blx	r4
   82146:	4a0c      	ldr	r2, [pc, #48]	; (82178 <board_init+0x74>)
   82148:	4b0c      	ldr	r3, [pc, #48]	; (8217c <board_init+0x78>)
   8214a:	f44f 7140 	mov.w	r1, #768	; 0x300
   8214e:	480c      	ldr	r0, [pc, #48]	; (82180 <board_init+0x7c>)
   82150:	4798      	blx	r3
   82152:	f04f 6100 	mov.w	r1, #134217728	; 0x8000000
   82156:	202b      	movs	r0, #43	; 0x2b
   82158:	47a0      	blx	r4
   8215a:	f04f 6100 	mov.w	r1, #134217728	; 0x8000000
   8215e:	202a      	movs	r0, #42	; 0x2a
   82160:	47a0      	blx	r4
   82162:	bd10      	pop	{r4, pc}
   82164:	400e1a50 	.word	0x400e1a50
   82168:	000827b1 	.word	0x000827b1
   8216c:	0008218d 	.word	0x0008218d
   82170:	28000079 	.word	0x28000079
   82174:	28000001 	.word	0x28000001
   82178:	08000001 	.word	0x08000001
   8217c:	0008227d 	.word	0x0008227d
   82180:	400e0e00 	.word	0x400e0e00

00082184 <pio_get_interrupt_status>:
   82184:	6cc0      	ldr	r0, [r0, #76]	; 0x4c
   82186:	4770      	bx	lr

00082188 <pio_get_interrupt_mask>:
   82188:	6c80      	ldr	r0, [r0, #72]	; 0x48
   8218a:	4770      	bx	lr

0008218c <pio_configure_pin>:
   8218c:	0943      	lsrs	r3, r0, #5
   8218e:	f503 1300 	add.w	r3, r3, #2097152	; 0x200000
   82192:	f001 42f0 	and.w	r2, r1, #2013265920	; 0x78000000
   82196:	f203 7307 	addw	r3, r3, #1799	; 0x707
   8219a:	f1b2 5f20 	cmp.w	r2, #671088640	; 0x28000000
   8219e:	b430      	push	{r4, r5}
   821a0:	ea4f 2343 	mov.w	r3, r3, lsl #9
   821a4:	d04c      	beq.n	82240 <pio_configure_pin+0xb4>
   821a6:	d829      	bhi.n	821fc <pio_configure_pin+0x70>
   821a8:	f1b2 6f00 	cmp.w	r2, #134217728	; 0x8000000
   821ac:	d013      	beq.n	821d6 <pio_configure_pin+0x4a>
   821ae:	f1b2 5f80 	cmp.w	r2, #268435456	; 0x10000000
   821b2:	d142      	bne.n	8223a <pio_configure_pin+0xae>
   821b4:	f000 021f 	and.w	r2, r0, #31
   821b8:	2001      	movs	r0, #1
   821ba:	fa00 f202 	lsl.w	r2, r0, r2
   821be:	645a      	str	r2, [r3, #68]	; 0x44
   821c0:	6f1c      	ldr	r4, [r3, #112]	; 0x70
   821c2:	07c9      	lsls	r1, r1, #31
   821c4:	ea44 0402 	orr.w	r4, r4, r2
   821c8:	671c      	str	r4, [r3, #112]	; 0x70
   821ca:	605a      	str	r2, [r3, #4]
   821cc:	bf4c      	ite	mi
   821ce:	665a      	strmi	r2, [r3, #100]	; 0x64
   821d0:	661a      	strpl	r2, [r3, #96]	; 0x60
   821d2:	bc30      	pop	{r4, r5}
   821d4:	4770      	bx	lr
   821d6:	f000 021f 	and.w	r2, r0, #31
   821da:	2001      	movs	r0, #1
   821dc:	fa00 f402 	lsl.w	r4, r0, r2
   821e0:	645c      	str	r4, [r3, #68]	; 0x44
   821e2:	6f1a      	ldr	r2, [r3, #112]	; 0x70
   821e4:	6f1d      	ldr	r5, [r3, #112]	; 0x70
   821e6:	402a      	ands	r2, r5
   821e8:	ea22 0204 	bic.w	r2, r2, r4
   821ec:	07cd      	lsls	r5, r1, #31
   821ee:	671a      	str	r2, [r3, #112]	; 0x70
   821f0:	605c      	str	r4, [r3, #4]
   821f2:	bf4c      	ite	mi
   821f4:	665c      	strmi	r4, [r3, #100]	; 0x64
   821f6:	661c      	strpl	r4, [r3, #96]	; 0x60
   821f8:	bc30      	pop	{r4, r5}
   821fa:	4770      	bx	lr
   821fc:	f1b2 5f40 	cmp.w	r2, #805306368	; 0x30000000
   82200:	d002      	beq.n	82208 <pio_configure_pin+0x7c>
   82202:	f1b2 5f60 	cmp.w	r2, #939524096	; 0x38000000
   82206:	d118      	bne.n	8223a <pio_configure_pin+0xae>
   82208:	f000 001f 	and.w	r0, r0, #31
   8220c:	2201      	movs	r2, #1
   8220e:	4082      	lsls	r2, r0
   82210:	f001 0404 	and.w	r4, r1, #4
   82214:	f001 5060 	and.w	r0, r1, #939524096	; 0x38000000
   82218:	07c9      	lsls	r1, r1, #31
   8221a:	645a      	str	r2, [r3, #68]	; 0x44
   8221c:	bf4c      	ite	mi
   8221e:	665a      	strmi	r2, [r3, #100]	; 0x64
   82220:	661a      	strpl	r2, [r3, #96]	; 0x60
   82222:	bb34      	cbnz	r4, 82272 <pio_configure_pin+0xe6>
   82224:	655a      	str	r2, [r3, #84]	; 0x54
   82226:	f1b0 5f60 	cmp.w	r0, #939524096	; 0x38000000
   8222a:	bf0c      	ite	eq
   8222c:	631a      	streq	r2, [r3, #48]	; 0x30
   8222e:	635a      	strne	r2, [r3, #52]	; 0x34
   82230:	611a      	str	r2, [r3, #16]
   82232:	601a      	str	r2, [r3, #0]
   82234:	2001      	movs	r0, #1
   82236:	bc30      	pop	{r4, r5}
   82238:	4770      	bx	lr
   8223a:	2000      	movs	r0, #0
   8223c:	bc30      	pop	{r4, r5}
   8223e:	4770      	bx	lr
   82240:	f000 001f 	and.w	r0, r0, #31
   82244:	2201      	movs	r2, #1
   82246:	4082      	lsls	r2, r0
   82248:	07cd      	lsls	r5, r1, #31
   8224a:	645a      	str	r2, [r3, #68]	; 0x44
   8224c:	bf4c      	ite	mi
   8224e:	665a      	strmi	r2, [r3, #100]	; 0x64
   82250:	661a      	strpl	r2, [r3, #96]	; 0x60
   82252:	f011 0f0a 	tst.w	r1, #10
   82256:	bf14      	ite	ne
   82258:	621a      	strne	r2, [r3, #32]
   8225a:	625a      	streq	r2, [r3, #36]	; 0x24
   8225c:	078c      	lsls	r4, r1, #30
   8225e:	d40a      	bmi.n	82276 <pio_configure_pin+0xea>
   82260:	0708      	lsls	r0, r1, #28
   82262:	bf48      	it	mi
   82264:	f8c3 2084 	strmi.w	r2, [r3, #132]	; 0x84
   82268:	615a      	str	r2, [r3, #20]
   8226a:	601a      	str	r2, [r3, #0]
   8226c:	2001      	movs	r0, #1
   8226e:	bc30      	pop	{r4, r5}
   82270:	4770      	bx	lr
   82272:	651a      	str	r2, [r3, #80]	; 0x50
   82274:	e7d7      	b.n	82226 <pio_configure_pin+0x9a>
   82276:	f8c3 2080 	str.w	r2, [r3, #128]	; 0x80
   8227a:	e7f5      	b.n	82268 <pio_configure_pin+0xdc>

0008227c <pio_configure_pin_group>:
   8227c:	b410      	push	{r4}
   8227e:	f002 44f0 	and.w	r4, r2, #2013265920	; 0x78000000
   82282:	f1b4 5f20 	cmp.w	r4, #671088640	; 0x28000000
   82286:	4603      	mov	r3, r0
   82288:	d043      	beq.n	82312 <pio_configure_pin_group+0x96>
   8228a:	d822      	bhi.n	822d2 <pio_configure_pin_group+0x56>
   8228c:	f1b4 6f00 	cmp.w	r4, #134217728	; 0x8000000
   82290:	d00f      	beq.n	822b2 <pio_configure_pin_group+0x36>
   82292:	f1b4 5f80 	cmp.w	r4, #268435456	; 0x10000000
   82296:	d138      	bne.n	8230a <pio_configure_pin_group+0x8e>
   82298:	6441      	str	r1, [r0, #68]	; 0x44
   8229a:	6f00      	ldr	r0, [r0, #112]	; 0x70
   8229c:	07d4      	lsls	r4, r2, #31
   8229e:	ea40 0001 	orr.w	r0, r0, r1
   822a2:	6718      	str	r0, [r3, #112]	; 0x70
   822a4:	6059      	str	r1, [r3, #4]
   822a6:	d40f      	bmi.n	822c8 <pio_configure_pin_group+0x4c>
   822a8:	6619      	str	r1, [r3, #96]	; 0x60
   822aa:	2001      	movs	r0, #1
   822ac:	f85d 4b04 	ldr.w	r4, [sp], #4
   822b0:	4770      	bx	lr
   822b2:	6441      	str	r1, [r0, #68]	; 0x44
   822b4:	6f00      	ldr	r0, [r0, #112]	; 0x70
   822b6:	6f1c      	ldr	r4, [r3, #112]	; 0x70
   822b8:	07d2      	lsls	r2, r2, #31
   822ba:	ea00 0004 	and.w	r0, r0, r4
   822be:	ea20 0001 	bic.w	r0, r0, r1
   822c2:	6718      	str	r0, [r3, #112]	; 0x70
   822c4:	6059      	str	r1, [r3, #4]
   822c6:	d5ef      	bpl.n	822a8 <pio_configure_pin_group+0x2c>
   822c8:	6659      	str	r1, [r3, #100]	; 0x64
   822ca:	2001      	movs	r0, #1
   822cc:	f85d 4b04 	ldr.w	r4, [sp], #4
   822d0:	4770      	bx	lr
   822d2:	f1b4 5f40 	cmp.w	r4, #805306368	; 0x30000000
   822d6:	d002      	beq.n	822de <pio_configure_pin_group+0x62>
   822d8:	f1b4 5f60 	cmp.w	r4, #939524096	; 0x38000000
   822dc:	d115      	bne.n	8230a <pio_configure_pin_group+0x8e>
   822de:	f002 5060 	and.w	r0, r2, #939524096	; 0x38000000
   822e2:	f002 0404 	and.w	r4, r2, #4
   822e6:	07d2      	lsls	r2, r2, #31
   822e8:	6459      	str	r1, [r3, #68]	; 0x44
   822ea:	bf4c      	ite	mi
   822ec:	6659      	strmi	r1, [r3, #100]	; 0x64
   822ee:	6619      	strpl	r1, [r3, #96]	; 0x60
   822f0:	bb2c      	cbnz	r4, 8233e <pio_configure_pin_group+0xc2>
   822f2:	6559      	str	r1, [r3, #84]	; 0x54
   822f4:	f1b0 5f60 	cmp.w	r0, #939524096	; 0x38000000
   822f8:	bf0c      	ite	eq
   822fa:	6319      	streq	r1, [r3, #48]	; 0x30
   822fc:	6359      	strne	r1, [r3, #52]	; 0x34
   822fe:	6119      	str	r1, [r3, #16]
   82300:	6019      	str	r1, [r3, #0]
   82302:	2001      	movs	r0, #1
   82304:	f85d 4b04 	ldr.w	r4, [sp], #4
   82308:	4770      	bx	lr
   8230a:	2000      	movs	r0, #0
   8230c:	f85d 4b04 	ldr.w	r4, [sp], #4
   82310:	4770      	bx	lr
   82312:	6441      	str	r1, [r0, #68]	; 0x44
   82314:	07d0      	lsls	r0, r2, #31
   82316:	bf4c      	ite	mi
   82318:	6659      	strmi	r1, [r3, #100]	; 0x64
   8231a:	6619      	strpl	r1, [r3, #96]	; 0x60
   8231c:	f012 0f0a 	tst.w	r2, #10
   82320:	bf14      	ite	ne
   82322:	6219      	strne	r1, [r3, #32]
   82324:	6259      	streq	r1, [r3, #36]	; 0x24
   82326:	0794      	lsls	r4, r2, #30
   82328:	d40b      	bmi.n	82342 <pio_configure_pin_group+0xc6>
   8232a:	0710      	lsls	r0, r2, #28
   8232c:	bf48      	it	mi
   8232e:	f8c3 1084 	strmi.w	r1, [r3, #132]	; 0x84
   82332:	6159      	str	r1, [r3, #20]
   82334:	6019      	str	r1, [r3, #0]
   82336:	2001      	movs	r0, #1
   82338:	f85d 4b04 	ldr.w	r4, [sp], #4
   8233c:	4770      	bx	lr
   8233e:	6519      	str	r1, [r3, #80]	; 0x50
   82340:	e7d8      	b.n	822f4 <pio_configure_pin_group+0x78>
   82342:	f8c3 1080 	str.w	r1, [r3, #128]	; 0x80
   82346:	e7f4      	b.n	82332 <pio_configure_pin_group+0xb6>

00082348 <PIOA_Handler>:
   82348:	b570      	push	{r4, r5, r6, lr}
   8234a:	4b32      	ldr	r3, [pc, #200]	; (82414 <PIOA_Handler+0xcc>)
   8234c:	4832      	ldr	r0, [pc, #200]	; (82418 <PIOA_Handler+0xd0>)
   8234e:	4798      	blx	r3
   82350:	4b32      	ldr	r3, [pc, #200]	; (8241c <PIOA_Handler+0xd4>)
   82352:	4604      	mov	r4, r0
   82354:	4830      	ldr	r0, [pc, #192]	; (82418 <PIOA_Handler+0xd0>)
   82356:	4798      	blx	r3
   82358:	ea10 0504 	ands.w	r5, r0, r4
   8235c:	d01b      	beq.n	82396 <PIOA_Handler+0x4e>
   8235e:	4c30      	ldr	r4, [pc, #192]	; (82420 <PIOA_Handler+0xd8>)
   82360:	6820      	ldr	r0, [r4, #0]
   82362:	280b      	cmp	r0, #11
   82364:	d018      	beq.n	82398 <PIOA_Handler+0x50>
   82366:	6920      	ldr	r0, [r4, #16]
   82368:	4e2d      	ldr	r6, [pc, #180]	; (82420 <PIOA_Handler+0xd8>)
   8236a:	280b      	cmp	r0, #11
   8236c:	d01d      	beq.n	823aa <PIOA_Handler+0x62>
   8236e:	6a20      	ldr	r0, [r4, #32]
   82370:	4e2b      	ldr	r6, [pc, #172]	; (82420 <PIOA_Handler+0xd8>)
   82372:	280b      	cmp	r0, #11
   82374:	d022      	beq.n	823bc <PIOA_Handler+0x74>
   82376:	6b20      	ldr	r0, [r4, #48]	; 0x30
   82378:	4e29      	ldr	r6, [pc, #164]	; (82420 <PIOA_Handler+0xd8>)
   8237a:	280b      	cmp	r0, #11
   8237c:	d027      	beq.n	823ce <PIOA_Handler+0x86>
   8237e:	6c20      	ldr	r0, [r4, #64]	; 0x40
   82380:	4e27      	ldr	r6, [pc, #156]	; (82420 <PIOA_Handler+0xd8>)
   82382:	280b      	cmp	r0, #11
   82384:	d02c      	beq.n	823e0 <PIOA_Handler+0x98>
   82386:	6d20      	ldr	r0, [r4, #80]	; 0x50
   82388:	4e25      	ldr	r6, [pc, #148]	; (82420 <PIOA_Handler+0xd8>)
   8238a:	280b      	cmp	r0, #11
   8238c:	d038      	beq.n	82400 <PIOA_Handler+0xb8>
   8238e:	6e20      	ldr	r0, [r4, #96]	; 0x60
   82390:	4b23      	ldr	r3, [pc, #140]	; (82420 <PIOA_Handler+0xd8>)
   82392:	280b      	cmp	r0, #11
   82394:	d02d      	beq.n	823f2 <PIOA_Handler+0xaa>
   82396:	bd70      	pop	{r4, r5, r6, pc}
   82398:	6861      	ldr	r1, [r4, #4]
   8239a:	420d      	tst	r5, r1
   8239c:	d0e3      	beq.n	82366 <PIOA_Handler+0x1e>
   8239e:	68e3      	ldr	r3, [r4, #12]
   823a0:	4798      	blx	r3
   823a2:	6863      	ldr	r3, [r4, #4]
   823a4:	439d      	bics	r5, r3
   823a6:	d0f6      	beq.n	82396 <PIOA_Handler+0x4e>
   823a8:	e7dd      	b.n	82366 <PIOA_Handler+0x1e>
   823aa:	6971      	ldr	r1, [r6, #20]
   823ac:	420d      	tst	r5, r1
   823ae:	d0de      	beq.n	8236e <PIOA_Handler+0x26>
   823b0:	69f3      	ldr	r3, [r6, #28]
   823b2:	4798      	blx	r3
   823b4:	6973      	ldr	r3, [r6, #20]
   823b6:	439d      	bics	r5, r3
   823b8:	d0ed      	beq.n	82396 <PIOA_Handler+0x4e>
   823ba:	e7d8      	b.n	8236e <PIOA_Handler+0x26>
   823bc:	6a71      	ldr	r1, [r6, #36]	; 0x24
   823be:	420d      	tst	r5, r1
   823c0:	d0d9      	beq.n	82376 <PIOA_Handler+0x2e>
   823c2:	6af3      	ldr	r3, [r6, #44]	; 0x2c
   823c4:	4798      	blx	r3
   823c6:	6a73      	ldr	r3, [r6, #36]	; 0x24
   823c8:	439d      	bics	r5, r3
   823ca:	d0e4      	beq.n	82396 <PIOA_Handler+0x4e>
   823cc:	e7d3      	b.n	82376 <PIOA_Handler+0x2e>
   823ce:	6b71      	ldr	r1, [r6, #52]	; 0x34
   823d0:	420d      	tst	r5, r1
   823d2:	d0d4      	beq.n	8237e <PIOA_Handler+0x36>
   823d4:	6bf3      	ldr	r3, [r6, #60]	; 0x3c
   823d6:	4798      	blx	r3
   823d8:	6b73      	ldr	r3, [r6, #52]	; 0x34
   823da:	439d      	bics	r5, r3
   823dc:	d0db      	beq.n	82396 <PIOA_Handler+0x4e>
   823de:	e7ce      	b.n	8237e <PIOA_Handler+0x36>
   823e0:	6c71      	ldr	r1, [r6, #68]	; 0x44
   823e2:	420d      	tst	r5, r1
   823e4:	d0cf      	beq.n	82386 <PIOA_Handler+0x3e>
   823e6:	6cf3      	ldr	r3, [r6, #76]	; 0x4c
   823e8:	4798      	blx	r3
   823ea:	6c73      	ldr	r3, [r6, #68]	; 0x44
   823ec:	439d      	bics	r5, r3
   823ee:	d0d2      	beq.n	82396 <PIOA_Handler+0x4e>
   823f0:	e7c9      	b.n	82386 <PIOA_Handler+0x3e>
   823f2:	6e59      	ldr	r1, [r3, #100]	; 0x64
   823f4:	4229      	tst	r1, r5
   823f6:	d0ce      	beq.n	82396 <PIOA_Handler+0x4e>
   823f8:	e8bd 4070 	ldmia.w	sp!, {r4, r5, r6, lr}
   823fc:	6edb      	ldr	r3, [r3, #108]	; 0x6c
   823fe:	4718      	bx	r3
   82400:	6d71      	ldr	r1, [r6, #84]	; 0x54
   82402:	420d      	tst	r5, r1
   82404:	d0c3      	beq.n	8238e <PIOA_Handler+0x46>
   82406:	6df3      	ldr	r3, [r6, #92]	; 0x5c
   82408:	4798      	blx	r3
   8240a:	6d73      	ldr	r3, [r6, #84]	; 0x54
   8240c:	439d      	bics	r5, r3
   8240e:	d0c2      	beq.n	82396 <PIOA_Handler+0x4e>
   82410:	e7bd      	b.n	8238e <PIOA_Handler+0x46>
   82412:	bf00      	nop
   82414:	00082185 	.word	0x00082185
   82418:	400e0e00 	.word	0x400e0e00
   8241c:	00082189 	.word	0x00082189
   82420:	200706fc 	.word	0x200706fc

00082424 <PIOB_Handler>:
   82424:	b570      	push	{r4, r5, r6, lr}
   82426:	4b32      	ldr	r3, [pc, #200]	; (824f0 <PIOB_Handler+0xcc>)
   82428:	4832      	ldr	r0, [pc, #200]	; (824f4 <PIOB_Handler+0xd0>)
   8242a:	4798      	blx	r3
   8242c:	4b32      	ldr	r3, [pc, #200]	; (824f8 <PIOB_Handler+0xd4>)
   8242e:	4604      	mov	r4, r0
   82430:	4830      	ldr	r0, [pc, #192]	; (824f4 <PIOB_Handler+0xd0>)
   82432:	4798      	blx	r3
   82434:	ea10 0504 	ands.w	r5, r0, r4
   82438:	d01b      	beq.n	82472 <PIOB_Handler+0x4e>
   8243a:	4c30      	ldr	r4, [pc, #192]	; (824fc <PIOB_Handler+0xd8>)
   8243c:	6820      	ldr	r0, [r4, #0]
   8243e:	280c      	cmp	r0, #12
   82440:	d018      	beq.n	82474 <PIOB_Handler+0x50>
   82442:	6920      	ldr	r0, [r4, #16]
   82444:	4e2d      	ldr	r6, [pc, #180]	; (824fc <PIOB_Handler+0xd8>)
   82446:	280c      	cmp	r0, #12
   82448:	d01d      	beq.n	82486 <PIOB_Handler+0x62>
   8244a:	6a20      	ldr	r0, [r4, #32]
   8244c:	4e2b      	ldr	r6, [pc, #172]	; (824fc <PIOB_Handler+0xd8>)
   8244e:	280c      	cmp	r0, #12
   82450:	d022      	beq.n	82498 <PIOB_Handler+0x74>
   82452:	6b20      	ldr	r0, [r4, #48]	; 0x30
   82454:	4e29      	ldr	r6, [pc, #164]	; (824fc <PIOB_Handler+0xd8>)
   82456:	280c      	cmp	r0, #12
   82458:	d027      	beq.n	824aa <PIOB_Handler+0x86>
   8245a:	6c20      	ldr	r0, [r4, #64]	; 0x40
   8245c:	4e27      	ldr	r6, [pc, #156]	; (824fc <PIOB_Handler+0xd8>)
   8245e:	280c      	cmp	r0, #12
   82460:	d02c      	beq.n	824bc <PIOB_Handler+0x98>
   82462:	6d20      	ldr	r0, [r4, #80]	; 0x50
   82464:	4e25      	ldr	r6, [pc, #148]	; (824fc <PIOB_Handler+0xd8>)
   82466:	280c      	cmp	r0, #12
   82468:	d038      	beq.n	824dc <PIOB_Handler+0xb8>
   8246a:	6e20      	ldr	r0, [r4, #96]	; 0x60
   8246c:	4b23      	ldr	r3, [pc, #140]	; (824fc <PIOB_Handler+0xd8>)
   8246e:	280c      	cmp	r0, #12
   82470:	d02d      	beq.n	824ce <PIOB_Handler+0xaa>
   82472:	bd70      	pop	{r4, r5, r6, pc}
   82474:	6861      	ldr	r1, [r4, #4]
   82476:	420d      	tst	r5, r1
   82478:	d0e3      	beq.n	82442 <PIOB_Handler+0x1e>
   8247a:	68e3      	ldr	r3, [r4, #12]
   8247c:	4798      	blx	r3
   8247e:	6863      	ldr	r3, [r4, #4]
   82480:	439d      	bics	r5, r3
   82482:	d0f6      	beq.n	82472 <PIOB_Handler+0x4e>
   82484:	e7dd      	b.n	82442 <PIOB_Handler+0x1e>
   82486:	6971      	ldr	r1, [r6, #20]
   82488:	420d      	tst	r5, r1
   8248a:	d0de      	beq.n	8244a <PIOB_Handler+0x26>
   8248c:	69f3      	ldr	r3, [r6, #28]
   8248e:	4798      	blx	r3
   82490:	6973      	ldr	r3, [r6, #20]
   82492:	439d      	bics	r5, r3
   82494:	d0ed      	beq.n	82472 <PIOB_Handler+0x4e>
   82496:	e7d8      	b.n	8244a <PIOB_Handler+0x26>
   82498:	6a71      	ldr	r1, [r6, #36]	; 0x24
   8249a:	420d      	tst	r5, r1
   8249c:	d0d9      	beq.n	82452 <PIOB_Handler+0x2e>
   8249e:	6af3      	ldr	r3, [r6, #44]	; 0x2c
   824a0:	4798      	blx	r3
   824a2:	6a73      	ldr	r3, [r6, #36]	; 0x24
   824a4:	439d      	bics	r5, r3
   824a6:	d0e4      	beq.n	82472 <PIOB_Handler+0x4e>
   824a8:	e7d3      	b.n	82452 <PIOB_Handler+0x2e>
   824aa:	6b71      	ldr	r1, [r6, #52]	; 0x34
   824ac:	420d      	tst	r5, r1
   824ae:	d0d4      	beq.n	8245a <PIOB_Handler+0x36>
   824b0:	6bf3      	ldr	r3, [r6, #60]	; 0x3c
   824b2:	4798      	blx	r3
   824b4:	6b73      	ldr	r3, [r6, #52]	; 0x34
   824b6:	439d      	bics	r5, r3
   824b8:	d0db      	beq.n	82472 <PIOB_Handler+0x4e>
   824ba:	e7ce      	b.n	8245a <PIOB_Handler+0x36>
   824bc:	6c71      	ldr	r1, [r6, #68]	; 0x44
   824be:	420d      	tst	r5, r1
   824c0:	d0cf      	beq.n	82462 <PIOB_Handler+0x3e>
   824c2:	6cf3      	ldr	r3, [r6, #76]	; 0x4c
   824c4:	4798      	blx	r3
   824c6:	6c73      	ldr	r3, [r6, #68]	; 0x44
   824c8:	439d      	bics	r5, r3
   824ca:	d0d2      	beq.n	82472 <PIOB_Handler+0x4e>
   824cc:	e7c9      	b.n	82462 <PIOB_Handler+0x3e>
   824ce:	6e59      	ldr	r1, [r3, #100]	; 0x64
   824d0:	4229      	tst	r1, r5
   824d2:	d0ce      	beq.n	82472 <PIOB_Handler+0x4e>
   824d4:	e8bd 4070 	ldmia.w	sp!, {r4, r5, r6, lr}
   824d8:	6edb      	ldr	r3, [r3, #108]	; 0x6c
   824da:	4718      	bx	r3
   824dc:	6d71      	ldr	r1, [r6, #84]	; 0x54
   824de:	420d      	tst	r5, r1
   824e0:	d0c3      	beq.n	8246a <PIOB_Handler+0x46>
   824e2:	6df3      	ldr	r3, [r6, #92]	; 0x5c
   824e4:	4798      	blx	r3
   824e6:	6d73      	ldr	r3, [r6, #84]	; 0x54
   824e8:	439d      	bics	r5, r3
   824ea:	d0c2      	beq.n	82472 <PIOB_Handler+0x4e>
   824ec:	e7bd      	b.n	8246a <PIOB_Handler+0x46>
   824ee:	bf00      	nop
   824f0:	00082185 	.word	0x00082185
   824f4:	400e1000 	.word	0x400e1000
   824f8:	00082189 	.word	0x00082189
   824fc:	200706fc 	.word	0x200706fc

00082500 <PIOC_Handler>:
   82500:	b570      	push	{r4, r5, r6, lr}
   82502:	4b32      	ldr	r3, [pc, #200]	; (825cc <PIOC_Handler+0xcc>)
   82504:	4832      	ldr	r0, [pc, #200]	; (825d0 <PIOC_Handler+0xd0>)
   82506:	4798      	blx	r3
   82508:	4b32      	ldr	r3, [pc, #200]	; (825d4 <PIOC_Handler+0xd4>)
   8250a:	4604      	mov	r4, r0
   8250c:	4830      	ldr	r0, [pc, #192]	; (825d0 <PIOC_Handler+0xd0>)
   8250e:	4798      	blx	r3
   82510:	ea10 0504 	ands.w	r5, r0, r4
   82514:	d01b      	beq.n	8254e <PIOC_Handler+0x4e>
   82516:	4c30      	ldr	r4, [pc, #192]	; (825d8 <PIOC_Handler+0xd8>)
   82518:	6820      	ldr	r0, [r4, #0]
   8251a:	280d      	cmp	r0, #13
   8251c:	d018      	beq.n	82550 <PIOC_Handler+0x50>
   8251e:	6920      	ldr	r0, [r4, #16]
   82520:	4e2d      	ldr	r6, [pc, #180]	; (825d8 <PIOC_Handler+0xd8>)
   82522:	280d      	cmp	r0, #13
   82524:	d01d      	beq.n	82562 <PIOC_Handler+0x62>
   82526:	6a20      	ldr	r0, [r4, #32]
   82528:	4e2b      	ldr	r6, [pc, #172]	; (825d8 <PIOC_Handler+0xd8>)
   8252a:	280d      	cmp	r0, #13
   8252c:	d022      	beq.n	82574 <PIOC_Handler+0x74>
   8252e:	6b20      	ldr	r0, [r4, #48]	; 0x30
   82530:	4e29      	ldr	r6, [pc, #164]	; (825d8 <PIOC_Handler+0xd8>)
   82532:	280d      	cmp	r0, #13
   82534:	d027      	beq.n	82586 <PIOC_Handler+0x86>
   82536:	6c20      	ldr	r0, [r4, #64]	; 0x40
   82538:	4e27      	ldr	r6, [pc, #156]	; (825d8 <PIOC_Handler+0xd8>)
   8253a:	280d      	cmp	r0, #13
   8253c:	d02c      	beq.n	82598 <PIOC_Handler+0x98>
   8253e:	6d20      	ldr	r0, [r4, #80]	; 0x50
   82540:	4e25      	ldr	r6, [pc, #148]	; (825d8 <PIOC_Handler+0xd8>)
   82542:	280d      	cmp	r0, #13
   82544:	d038      	beq.n	825b8 <PIOC_Handler+0xb8>
   82546:	6e20      	ldr	r0, [r4, #96]	; 0x60
   82548:	4b23      	ldr	r3, [pc, #140]	; (825d8 <PIOC_Handler+0xd8>)
   8254a:	280d      	cmp	r0, #13
   8254c:	d02d      	beq.n	825aa <PIOC_Handler+0xaa>
   8254e:	bd70      	pop	{r4, r5, r6, pc}
   82550:	6861      	ldr	r1, [r4, #4]
   82552:	420d      	tst	r5, r1
   82554:	d0e3      	beq.n	8251e <PIOC_Handler+0x1e>
   82556:	68e3      	ldr	r3, [r4, #12]
   82558:	4798      	blx	r3
   8255a:	6863      	ldr	r3, [r4, #4]
   8255c:	439d      	bics	r5, r3
   8255e:	d0f6      	beq.n	8254e <PIOC_Handler+0x4e>
   82560:	e7dd      	b.n	8251e <PIOC_Handler+0x1e>
   82562:	6971      	ldr	r1, [r6, #20]
   82564:	420d      	tst	r5, r1
   82566:	d0de      	beq.n	82526 <PIOC_Handler+0x26>
   82568:	69f3      	ldr	r3, [r6, #28]
   8256a:	4798      	blx	r3
   8256c:	6973      	ldr	r3, [r6, #20]
   8256e:	439d      	bics	r5, r3
   82570:	d0ed      	beq.n	8254e <PIOC_Handler+0x4e>
   82572:	e7d8      	b.n	82526 <PIOC_Handler+0x26>
   82574:	6a71      	ldr	r1, [r6, #36]	; 0x24
   82576:	420d      	tst	r5, r1
   82578:	d0d9      	beq.n	8252e <PIOC_Handler+0x2e>
   8257a:	6af3      	ldr	r3, [r6, #44]	; 0x2c
   8257c:	4798      	blx	r3
   8257e:	6a73      	ldr	r3, [r6, #36]	; 0x24
   82580:	439d      	bics	r5, r3
   82582:	d0e4      	beq.n	8254e <PIOC_Handler+0x4e>
   82584:	e7d3      	b.n	8252e <PIOC_Handler+0x2e>
   82586:	6b71      	ldr	r1, [r6, #52]	; 0x34
   82588:	420d      	tst	r5, r1
   8258a:	d0d4      	beq.n	82536 <PIOC_Handler+0x36>
   8258c:	6bf3      	ldr	r3, [r6, #60]	; 0x3c
   8258e:	4798      	blx	r3
   82590:	6b73      	ldr	r3, [r6, #52]	; 0x34
   82592:	439d      	bics	r5, r3
   82594:	d0db      	beq.n	8254e <PIOC_Handler+0x4e>
   82596:	e7ce      	b.n	82536 <PIOC_Handler+0x36>
   82598:	6c71      	ldr	r1, [r6, #68]	; 0x44
   8259a:	420d      	tst	r5, r1
   8259c:	d0cf      	beq.n	8253e <PIOC_Handler+0x3e>
   8259e:	6cf3      	ldr	r3, [r6, #76]	; 0x4c
   825a0:	4798      	blx	r3
   825a2:	6c73      	ldr	r3, [r6, #68]	; 0x44
   825a4:	439d      	bics	r5, r3
   825a6:	d0d2      	beq.n	8254e <PIOC_Handler+0x4e>
   825a8:	e7c9      	b.n	8253e <PIOC_Handler+0x3e>
   825aa:	6e59      	ldr	r1, [r3, #100]	; 0x64
   825ac:	4229      	tst	r1, r5
   825ae:	d0ce      	beq.n	8254e <PIOC_Handler+0x4e>
   825b0:	e8bd 4070 	ldmia.w	sp!, {r4, r5, r6, lr}
   825b4:	6edb      	ldr	r3, [r3, #108]	; 0x6c
   825b6:	4718      	bx	r3
   825b8:	6d71      	ldr	r1, [r6, #84]	; 0x54
   825ba:	420d      	tst	r5, r1
   825bc:	d0c3      	beq.n	82546 <PIOC_Handler+0x46>
   825be:	6df3      	ldr	r3, [r6, #92]	; 0x5c
   825c0:	4798      	blx	r3
   825c2:	6d73      	ldr	r3, [r6, #84]	; 0x54
   825c4:	439d      	bics	r5, r3
   825c6:	d0c2      	beq.n	8254e <PIOC_Handler+0x4e>
   825c8:	e7bd      	b.n	82546 <PIOC_Handler+0x46>
   825ca:	bf00      	nop
   825cc:	00082185 	.word	0x00082185
   825d0:	400e1200 	.word	0x400e1200
   825d4:	00082189 	.word	0x00082189
   825d8:	200706fc 	.word	0x200706fc

000825dc <PIOD_Handler>:
   825dc:	b570      	push	{r4, r5, r6, lr}
   825de:	4b32      	ldr	r3, [pc, #200]	; (826a8 <PIOD_Handler+0xcc>)
   825e0:	4832      	ldr	r0, [pc, #200]	; (826ac <PIOD_Handler+0xd0>)
   825e2:	4798      	blx	r3
   825e4:	4b32      	ldr	r3, [pc, #200]	; (826b0 <PIOD_Handler+0xd4>)
   825e6:	4604      	mov	r4, r0
   825e8:	4830      	ldr	r0, [pc, #192]	; (826ac <PIOD_Handler+0xd0>)
   825ea:	4798      	blx	r3
   825ec:	ea10 0504 	ands.w	r5, r0, r4
   825f0:	d01b      	beq.n	8262a <PIOD_Handler+0x4e>
   825f2:	4c30      	ldr	r4, [pc, #192]	; (826b4 <PIOD_Handler+0xd8>)
   825f4:	6820      	ldr	r0, [r4, #0]
   825f6:	280e      	cmp	r0, #14
   825f8:	d018      	beq.n	8262c <PIOD_Handler+0x50>
   825fa:	6920      	ldr	r0, [r4, #16]
   825fc:	4e2d      	ldr	r6, [pc, #180]	; (826b4 <PIOD_Handler+0xd8>)
   825fe:	280e      	cmp	r0, #14
   82600:	d01d      	beq.n	8263e <PIOD_Handler+0x62>
   82602:	6a20      	ldr	r0, [r4, #32]
   82604:	4e2b      	ldr	r6, [pc, #172]	; (826b4 <PIOD_Handler+0xd8>)
   82606:	280e      	cmp	r0, #14
   82608:	d022      	beq.n	82650 <PIOD_Handler+0x74>
   8260a:	6b20      	ldr	r0, [r4, #48]	; 0x30
   8260c:	4e29      	ldr	r6, [pc, #164]	; (826b4 <PIOD_Handler+0xd8>)
   8260e:	280e      	cmp	r0, #14
   82610:	d027      	beq.n	82662 <PIOD_Handler+0x86>
   82612:	6c20      	ldr	r0, [r4, #64]	; 0x40
   82614:	4e27      	ldr	r6, [pc, #156]	; (826b4 <PIOD_Handler+0xd8>)
   82616:	280e      	cmp	r0, #14
   82618:	d02c      	beq.n	82674 <PIOD_Handler+0x98>
   8261a:	6d20      	ldr	r0, [r4, #80]	; 0x50
   8261c:	4e25      	ldr	r6, [pc, #148]	; (826b4 <PIOD_Handler+0xd8>)
   8261e:	280e      	cmp	r0, #14
   82620:	d038      	beq.n	82694 <PIOD_Handler+0xb8>
   82622:	6e20      	ldr	r0, [r4, #96]	; 0x60
   82624:	4b23      	ldr	r3, [pc, #140]	; (826b4 <PIOD_Handler+0xd8>)
   82626:	280e      	cmp	r0, #14
   82628:	d02d      	beq.n	82686 <PIOD_Handler+0xaa>
   8262a:	bd70      	pop	{r4, r5, r6, pc}
   8262c:	6861      	ldr	r1, [r4, #4]
   8262e:	420d      	tst	r5, r1
   82630:	d0e3      	beq.n	825fa <PIOD_Handler+0x1e>
   82632:	68e3      	ldr	r3, [r4, #12]
   82634:	4798      	blx	r3
   82636:	6863      	ldr	r3, [r4, #4]
   82638:	439d      	bics	r5, r3
   8263a:	d0f6      	beq.n	8262a <PIOD_Handler+0x4e>
   8263c:	e7dd      	b.n	825fa <PIOD_Handler+0x1e>
   8263e:	6971      	ldr	r1, [r6, #20]
   82640:	420d      	tst	r5, r1
   82642:	d0de      	beq.n	82602 <PIOD_Handler+0x26>
   82644:	69f3      	ldr	r3, [r6, #28]
   82646:	4798      	blx	r3
   82648:	6973      	ldr	r3, [r6, #20]
   8264a:	439d      	bics	r5, r3
   8264c:	d0ed      	beq.n	8262a <PIOD_Handler+0x4e>
   8264e:	e7d8      	b.n	82602 <PIOD_Handler+0x26>
   82650:	6a71      	ldr	r1, [r6, #36]	; 0x24
   82652:	420d      	tst	r5, r1
   82654:	d0d9      	beq.n	8260a <PIOD_Handler+0x2e>
   82656:	6af3      	ldr	r3, [r6, #44]	; 0x2c
   82658:	4798      	blx	r3
   8265a:	6a73      	ldr	r3, [r6, #36]	; 0x24
   8265c:	439d      	bics	r5, r3
   8265e:	d0e4      	beq.n	8262a <PIOD_Handler+0x4e>
   82660:	e7d3      	b.n	8260a <PIOD_Handler+0x2e>
   82662:	6b71      	ldr	r1, [r6, #52]	; 0x34
   82664:	420d      	tst	r5, r1
   82666:	d0d4      	beq.n	82612 <PIOD_Handler+0x36>
   82668:	6bf3      	ldr	r3, [r6, #60]	; 0x3c
   8266a:	4798      	blx	r3
   8266c:	6b73      	ldr	r3, [r6, #52]	; 0x34
   8266e:	439d      	bics	r5, r3
   82670:	d0db      	beq.n	8262a <PIOD_Handler+0x4e>
   82672:	e7ce      	b.n	82612 <PIOD_Handler+0x36>
   82674:	6c71      	ldr	r1, [r6, #68]	; 0x44
   82676:	420d      	tst	r5, r1
   82678:	d0cf      	beq.n	8261a <PIOD_Handler+0x3e>
   8267a:	6cf3      	ldr	r3, [r6, #76]	; 0x4c
   8267c:	4798      	blx	r3
   8267e:	6c73      	ldr	r3, [r6, #68]	; 0x44
   82680:	439d      	bics	r5, r3
   82682:	d0d2      	beq.n	8262a <PIOD_Handler+0x4e>
   82684:	e7c9      	b.n	8261a <PIOD_Handler+0x3e>
   82686:	6e59      	ldr	r1, [r3, #100]	; 0x64
   82688:	4229      	tst	r1, r5
   8268a:	d0ce      	beq.n	8262a <PIOD_Handler+0x4e>
   8268c:	e8bd 4070 	ldmia.w	sp!, {r4, r5, r6, lr}
   82690:	6edb      	ldr	r3, [r3, #108]	; 0x6c
   82692:	4718      	bx	r3
   82694:	6d71      	ldr	r1, [r6, #84]	; 0x54
   82696:	420d      	tst	r5, r1
   82698:	d0c3      	beq.n	82622 <PIOD_Handler+0x46>
   8269a:	6df3      	ldr	r3, [r6, #92]	; 0x5c
   8269c:	4798      	blx	r3
   8269e:	6d73      	ldr	r3, [r6, #84]	; 0x54
   826a0:	439d      	bics	r5, r3
   826a2:	d0c2      	beq.n	8262a <PIOD_Handler+0x4e>
   826a4:	e7bd      	b.n	82622 <PIOD_Handler+0x46>
   826a6:	bf00      	nop
   826a8:	00082185 	.word	0x00082185
   826ac:	400e1400 	.word	0x400e1400
   826b0:	00082189 	.word	0x00082189
   826b4:	200706fc 	.word	0x200706fc

000826b8 <pmc_switch_mck_to_pllack>:
   826b8:	4915      	ldr	r1, [pc, #84]	; (82710 <pmc_switch_mck_to_pllack+0x58>)
   826ba:	6b0b      	ldr	r3, [r1, #48]	; 0x30
   826bc:	f023 0370 	bic.w	r3, r3, #112	; 0x70
   826c0:	4318      	orrs	r0, r3
   826c2:	6308      	str	r0, [r1, #48]	; 0x30
   826c4:	6e8b      	ldr	r3, [r1, #104]	; 0x68
   826c6:	071b      	lsls	r3, r3, #28
   826c8:	bf58      	it	pl
   826ca:	f44f 6300 	movpl.w	r3, #2048	; 0x800
   826ce:	d502      	bpl.n	826d6 <pmc_switch_mck_to_pllack+0x1e>
   826d0:	e004      	b.n	826dc <pmc_switch_mck_to_pllack+0x24>
   826d2:	3b01      	subs	r3, #1
   826d4:	d017      	beq.n	82706 <pmc_switch_mck_to_pllack+0x4e>
   826d6:	6e8a      	ldr	r2, [r1, #104]	; 0x68
   826d8:	0710      	lsls	r0, r2, #28
   826da:	d5fa      	bpl.n	826d2 <pmc_switch_mck_to_pllack+0x1a>
   826dc:	490c      	ldr	r1, [pc, #48]	; (82710 <pmc_switch_mck_to_pllack+0x58>)
   826de:	6b0b      	ldr	r3, [r1, #48]	; 0x30
   826e0:	f023 0303 	bic.w	r3, r3, #3
   826e4:	f043 0302 	orr.w	r3, r3, #2
   826e8:	630b      	str	r3, [r1, #48]	; 0x30
   826ea:	6e88      	ldr	r0, [r1, #104]	; 0x68
   826ec:	f010 0008 	ands.w	r0, r0, #8
   826f0:	bf08      	it	eq
   826f2:	f44f 6300 	moveq.w	r3, #2048	; 0x800
   826f6:	d002      	beq.n	826fe <pmc_switch_mck_to_pllack+0x46>
   826f8:	e007      	b.n	8270a <pmc_switch_mck_to_pllack+0x52>
   826fa:	3b01      	subs	r3, #1
   826fc:	d003      	beq.n	82706 <pmc_switch_mck_to_pllack+0x4e>
   826fe:	6e8a      	ldr	r2, [r1, #104]	; 0x68
   82700:	0712      	lsls	r2, r2, #28
   82702:	d5fa      	bpl.n	826fa <pmc_switch_mck_to_pllack+0x42>
   82704:	4770      	bx	lr
   82706:	2001      	movs	r0, #1
   82708:	4770      	bx	lr
   8270a:	2000      	movs	r0, #0
   8270c:	4770      	bx	lr
   8270e:	bf00      	nop
   82710:	400e0600 	.word	0x400e0600

00082714 <pmc_switch_mainck_to_xtal>:
   82714:	b9c8      	cbnz	r0, 8274a <pmc_switch_mainck_to_xtal+0x36>
   82716:	4a11      	ldr	r2, [pc, #68]	; (8275c <pmc_switch_mainck_to_xtal+0x48>)
   82718:	0209      	lsls	r1, r1, #8
   8271a:	4610      	mov	r0, r2
   8271c:	6a13      	ldr	r3, [r2, #32]
   8271e:	b289      	uxth	r1, r1
   82720:	f423 135c 	bic.w	r3, r3, #3604480	; 0x370000
   82724:	f023 0303 	bic.w	r3, r3, #3
   82728:	f443 135c 	orr.w	r3, r3, #3604480	; 0x370000
   8272c:	f043 0301 	orr.w	r3, r3, #1
   82730:	430b      	orrs	r3, r1
   82732:	6213      	str	r3, [r2, #32]
   82734:	6e83      	ldr	r3, [r0, #104]	; 0x68
   82736:	4a09      	ldr	r2, [pc, #36]	; (8275c <pmc_switch_mainck_to_xtal+0x48>)
   82738:	07db      	lsls	r3, r3, #31
   8273a:	d5fb      	bpl.n	82734 <pmc_switch_mainck_to_xtal+0x20>
   8273c:	6a13      	ldr	r3, [r2, #32]
   8273e:	f043 739b 	orr.w	r3, r3, #20316160	; 0x1360000
   82742:	f443 3380 	orr.w	r3, r3, #65536	; 0x10000
   82746:	6213      	str	r3, [r2, #32]
   82748:	4770      	bx	lr
   8274a:	4904      	ldr	r1, [pc, #16]	; (8275c <pmc_switch_mainck_to_xtal+0x48>)
   8274c:	4a04      	ldr	r2, [pc, #16]	; (82760 <pmc_switch_mainck_to_xtal+0x4c>)
   8274e:	6a08      	ldr	r0, [r1, #32]
   82750:	4b04      	ldr	r3, [pc, #16]	; (82764 <pmc_switch_mainck_to_xtal+0x50>)
   82752:	4002      	ands	r2, r0
   82754:	4313      	orrs	r3, r2
   82756:	620b      	str	r3, [r1, #32]
   82758:	4770      	bx	lr
   8275a:	bf00      	nop
   8275c:	400e0600 	.word	0x400e0600
   82760:	fec8fffc 	.word	0xfec8fffc
   82764:	01370002 	.word	0x01370002

00082768 <pmc_osc_is_ready_mainck>:
   82768:	4b02      	ldr	r3, [pc, #8]	; (82774 <pmc_osc_is_ready_mainck+0xc>)
   8276a:	6e98      	ldr	r0, [r3, #104]	; 0x68
   8276c:	f400 3080 	and.w	r0, r0, #65536	; 0x10000
   82770:	4770      	bx	lr
   82772:	bf00      	nop
   82774:	400e0600 	.word	0x400e0600

00082778 <pmc_disable_pllack>:
   82778:	4b02      	ldr	r3, [pc, #8]	; (82784 <pmc_disable_pllack+0xc>)
   8277a:	f04f 5200 	mov.w	r2, #536870912	; 0x20000000
   8277e:	629a      	str	r2, [r3, #40]	; 0x28
   82780:	4770      	bx	lr
   82782:	bf00      	nop
   82784:	400e0600 	.word	0x400e0600

00082788 <pmc_is_locked_pllack>:
   82788:	4b02      	ldr	r3, [pc, #8]	; (82794 <pmc_is_locked_pllack+0xc>)
   8278a:	6e98      	ldr	r0, [r3, #104]	; 0x68
   8278c:	f000 0002 	and.w	r0, r0, #2
   82790:	4770      	bx	lr
   82792:	bf00      	nop
   82794:	400e0600 	.word	0x400e0600

00082798 <pmc_enable_upll_clock>:
   82798:	4b04      	ldr	r3, [pc, #16]	; (827ac <pmc_enable_upll_clock+0x14>)
   8279a:	f44f 1144 	mov.w	r1, #3211264	; 0x310000
   8279e:	461a      	mov	r2, r3
   827a0:	61d9      	str	r1, [r3, #28]
   827a2:	6e93      	ldr	r3, [r2, #104]	; 0x68
   827a4:	065b      	lsls	r3, r3, #25
   827a6:	d5fc      	bpl.n	827a2 <pmc_enable_upll_clock+0xa>
   827a8:	4770      	bx	lr
   827aa:	bf00      	nop
   827ac:	400e0600 	.word	0x400e0600

000827b0 <pmc_enable_periph_clk>:
   827b0:	282c      	cmp	r0, #44	; 0x2c
   827b2:	d817      	bhi.n	827e4 <pmc_enable_periph_clk+0x34>
   827b4:	281f      	cmp	r0, #31
   827b6:	490d      	ldr	r1, [pc, #52]	; (827ec <pmc_enable_periph_clk+0x3c>)
   827b8:	d808      	bhi.n	827cc <pmc_enable_periph_clk+0x1c>
   827ba:	2301      	movs	r3, #1
   827bc:	698a      	ldr	r2, [r1, #24]
   827be:	4083      	lsls	r3, r0
   827c0:	401a      	ands	r2, r3
   827c2:	4293      	cmp	r3, r2
   827c4:	d010      	beq.n	827e8 <pmc_enable_periph_clk+0x38>
   827c6:	610b      	str	r3, [r1, #16]
   827c8:	2000      	movs	r0, #0
   827ca:	4770      	bx	lr
   827cc:	3820      	subs	r0, #32
   827ce:	2301      	movs	r3, #1
   827d0:	f8d1 2108 	ldr.w	r2, [r1, #264]	; 0x108
   827d4:	4083      	lsls	r3, r0
   827d6:	401a      	ands	r2, r3
   827d8:	4293      	cmp	r3, r2
   827da:	d005      	beq.n	827e8 <pmc_enable_periph_clk+0x38>
   827dc:	f8c1 3100 	str.w	r3, [r1, #256]	; 0x100
   827e0:	2000      	movs	r0, #0
   827e2:	4770      	bx	lr
   827e4:	2001      	movs	r0, #1
   827e6:	4770      	bx	lr
   827e8:	2000      	movs	r0, #0
   827ea:	4770      	bx	lr
   827ec:	400e0600 	.word	0x400e0600

000827f0 <pmc_switch_udpck_to_upllck>:
   827f0:	0200      	lsls	r0, r0, #8
   827f2:	f400 6070 	and.w	r0, r0, #3840	; 0xf00
   827f6:	4b02      	ldr	r3, [pc, #8]	; (82800 <pmc_switch_udpck_to_upllck+0x10>)
   827f8:	f040 0001 	orr.w	r0, r0, #1
   827fc:	6398      	str	r0, [r3, #56]	; 0x38
   827fe:	4770      	bx	lr
   82800:	400e0600 	.word	0x400e0600

00082804 <pmc_enable_udpck>:
   82804:	4b01      	ldr	r3, [pc, #4]	; (8280c <pmc_enable_udpck+0x8>)
   82806:	2220      	movs	r2, #32
   82808:	601a      	str	r2, [r3, #0]
   8280a:	4770      	bx	lr
   8280c:	400e0600 	.word	0x400e0600

00082810 <pmc_set_fast_startup_input>:
   82810:	4a03      	ldr	r2, [pc, #12]	; (82820 <pmc_set_fast_startup_input+0x10>)
   82812:	f3c0 0012 	ubfx	r0, r0, #0, #19
   82816:	6f13      	ldr	r3, [r2, #112]	; 0x70
   82818:	4318      	orrs	r0, r3
   8281a:	6710      	str	r0, [r2, #112]	; 0x70
   8281c:	4770      	bx	lr
   8281e:	bf00      	nop
   82820:	400e0600 	.word	0x400e0600

00082824 <pmc_is_wakeup_clocks_restored>:
   82824:	4b02      	ldr	r3, [pc, #8]	; (82830 <pmc_is_wakeup_clocks_restored+0xc>)
   82826:	7818      	ldrb	r0, [r3, #0]
   82828:	f080 0001 	eor.w	r0, r0, #1
   8282c:	4770      	bx	lr
   8282e:	bf00      	nop
   82830:	2007076c 	.word	0x2007076c

00082834 <Dummy_Handler>:
   82834:	e7fe      	b.n	82834 <Dummy_Handler>
   82836:	bf00      	nop

00082838 <Reset_Handler>:
   82838:	4917      	ldr	r1, [pc, #92]	; (82898 <Reset_Handler+0x60>)
   8283a:	4818      	ldr	r0, [pc, #96]	; (8289c <Reset_Handler+0x64>)
   8283c:	b508      	push	{r3, lr}
   8283e:	4281      	cmp	r1, r0
   82840:	d009      	beq.n	82856 <Reset_Handler+0x1e>
   82842:	4b17      	ldr	r3, [pc, #92]	; (828a0 <Reset_Handler+0x68>)
   82844:	4298      	cmp	r0, r3
   82846:	d206      	bcs.n	82856 <Reset_Handler+0x1e>
   82848:	43c2      	mvns	r2, r0
   8284a:	4413      	add	r3, r2
   8284c:	f023 0203 	bic.w	r2, r3, #3
   82850:	3204      	adds	r2, #4
   82852:	4b14      	ldr	r3, [pc, #80]	; (828a4 <Reset_Handler+0x6c>)
   82854:	4798      	blx	r3
   82856:	4814      	ldr	r0, [pc, #80]	; (828a8 <Reset_Handler+0x70>)
   82858:	4b14      	ldr	r3, [pc, #80]	; (828ac <Reset_Handler+0x74>)
   8285a:	4298      	cmp	r0, r3
   8285c:	d207      	bcs.n	8286e <Reset_Handler+0x36>
   8285e:	43c2      	mvns	r2, r0
   82860:	4413      	add	r3, r2
   82862:	f023 0203 	bic.w	r2, r3, #3
   82866:	3204      	adds	r2, #4
   82868:	2100      	movs	r1, #0
   8286a:	4b11      	ldr	r3, [pc, #68]	; (828b0 <Reset_Handler+0x78>)
   8286c:	4798      	blx	r3
   8286e:	4b11      	ldr	r3, [pc, #68]	; (828b4 <Reset_Handler+0x7c>)
   82870:	4a11      	ldr	r2, [pc, #68]	; (828b8 <Reset_Handler+0x80>)
   82872:	f023 4160 	bic.w	r1, r3, #3758096384	; 0xe0000000
   82876:	f103 4360 	add.w	r3, r3, #3758096384	; 0xe0000000
   8287a:	f021 017f 	bic.w	r1, r1, #127	; 0x7f
   8287e:	f5b3 1f80 	cmp.w	r3, #1048576	; 0x100000
   82882:	6091      	str	r1, [r2, #8]
   82884:	d203      	bcs.n	8288e <Reset_Handler+0x56>
   82886:	6893      	ldr	r3, [r2, #8]
   82888:	f043 5300 	orr.w	r3, r3, #536870912	; 0x20000000
   8288c:	6093      	str	r3, [r2, #8]
   8288e:	4b0b      	ldr	r3, [pc, #44]	; (828bc <Reset_Handler+0x84>)
   82890:	4798      	blx	r3
   82892:	4b0b      	ldr	r3, [pc, #44]	; (828c0 <Reset_Handler+0x88>)
   82894:	4798      	blx	r3
   82896:	e7fe      	b.n	82896 <Reset_Handler+0x5e>
   82898:	00083508 	.word	0x00083508
   8289c:	20070000 	.word	0x20070000
   828a0:	20070688 	.word	0x20070688
   828a4:	0008307d 	.word	0x0008307d
   828a8:	20070688 	.word	0x20070688
   828ac:	20070808 	.word	0x20070808
   828b0:	00083169 	.word	0x00083169
   828b4:	00080000 	.word	0x00080000
   828b8:	e000ed00 	.word	0xe000ed00
   828bc:	0008302d 	.word	0x0008302d
   828c0:	000829d5 	.word	0x000829d5

000828c4 <SystemCoreClockUpdate>:
   828c4:	b410      	push	{r4}
   828c6:	4a35      	ldr	r2, [pc, #212]	; (8299c <SystemCoreClockUpdate+0xd8>)
   828c8:	6b13      	ldr	r3, [r2, #48]	; 0x30
   828ca:	f003 0303 	and.w	r3, r3, #3
   828ce:	2b01      	cmp	r3, #1
   828d0:	d033      	beq.n	8293a <SystemCoreClockUpdate+0x76>
   828d2:	d31a      	bcc.n	8290a <SystemCoreClockUpdate+0x46>
   828d4:	6a13      	ldr	r3, [r2, #32]
   828d6:	01d9      	lsls	r1, r3, #7
   828d8:	d540      	bpl.n	8295c <SystemCoreClockUpdate+0x98>
   828da:	4931      	ldr	r1, [pc, #196]	; (829a0 <SystemCoreClockUpdate+0xdc>)
   828dc:	4b31      	ldr	r3, [pc, #196]	; (829a4 <SystemCoreClockUpdate+0xe0>)
   828de:	600b      	str	r3, [r1, #0]
   828e0:	482e      	ldr	r0, [pc, #184]	; (8299c <SystemCoreClockUpdate+0xd8>)
   828e2:	6b02      	ldr	r2, [r0, #48]	; 0x30
   828e4:	f002 0203 	and.w	r2, r2, #3
   828e8:	2a02      	cmp	r2, #2
   828ea:	d047      	beq.n	8297c <SystemCoreClockUpdate+0xb8>
   828ec:	482b      	ldr	r0, [pc, #172]	; (8299c <SystemCoreClockUpdate+0xd8>)
   828ee:	4b2e      	ldr	r3, [pc, #184]	; (829a8 <SystemCoreClockUpdate+0xe4>)
   828f0:	6b02      	ldr	r2, [r0, #48]	; 0x30
   828f2:	f002 0270 	and.w	r2, r2, #112	; 0x70
   828f6:	2a70      	cmp	r2, #112	; 0x70
   828f8:	d117      	bne.n	8292a <SystemCoreClockUpdate+0x66>
   828fa:	4a2c      	ldr	r2, [pc, #176]	; (829ac <SystemCoreClockUpdate+0xe8>)
   828fc:	fba2 2303 	umull	r2, r3, r2, r3
   82900:	085b      	lsrs	r3, r3, #1
   82902:	600b      	str	r3, [r1, #0]
   82904:	f85d 4b04 	ldr.w	r4, [sp], #4
   82908:	4770      	bx	lr
   8290a:	4b29      	ldr	r3, [pc, #164]	; (829b0 <SystemCoreClockUpdate+0xec>)
   8290c:	4924      	ldr	r1, [pc, #144]	; (829a0 <SystemCoreClockUpdate+0xdc>)
   8290e:	695b      	ldr	r3, [r3, #20]
   82910:	f013 0f80 	tst.w	r3, #128	; 0x80
   82914:	bf14      	ite	ne
   82916:	f44f 4300 	movne.w	r3, #32768	; 0x8000
   8291a:	f44f 43fa 	moveq.w	r3, #32000	; 0x7d00
   8291e:	481f      	ldr	r0, [pc, #124]	; (8299c <SystemCoreClockUpdate+0xd8>)
   82920:	6b02      	ldr	r2, [r0, #48]	; 0x30
   82922:	f002 0270 	and.w	r2, r2, #112	; 0x70
   82926:	2a70      	cmp	r2, #112	; 0x70
   82928:	d0e7      	beq.n	828fa <SystemCoreClockUpdate+0x36>
   8292a:	6b02      	ldr	r2, [r0, #48]	; 0x30
   8292c:	f3c2 1202 	ubfx	r2, r2, #4, #3
   82930:	40d3      	lsrs	r3, r2
   82932:	600b      	str	r3, [r1, #0]
   82934:	f85d 4b04 	ldr.w	r4, [sp], #4
   82938:	4770      	bx	lr
   8293a:	6a13      	ldr	r3, [r2, #32]
   8293c:	01db      	lsls	r3, r3, #7
   8293e:	d41a      	bmi.n	82976 <SystemCoreClockUpdate+0xb2>
   82940:	4917      	ldr	r1, [pc, #92]	; (829a0 <SystemCoreClockUpdate+0xdc>)
   82942:	481c      	ldr	r0, [pc, #112]	; (829b4 <SystemCoreClockUpdate+0xf0>)
   82944:	6008      	str	r0, [r1, #0]
   82946:	6a13      	ldr	r3, [r2, #32]
   82948:	f003 0370 	and.w	r3, r3, #112	; 0x70
   8294c:	2b10      	cmp	r3, #16
   8294e:	d022      	beq.n	82996 <SystemCoreClockUpdate+0xd2>
   82950:	4a14      	ldr	r2, [pc, #80]	; (829a4 <SystemCoreClockUpdate+0xe0>)
   82952:	2b20      	cmp	r3, #32
   82954:	bf0c      	ite	eq
   82956:	4613      	moveq	r3, r2
   82958:	4603      	movne	r3, r0
   8295a:	e7e0      	b.n	8291e <SystemCoreClockUpdate+0x5a>
   8295c:	4910      	ldr	r1, [pc, #64]	; (829a0 <SystemCoreClockUpdate+0xdc>)
   8295e:	4b15      	ldr	r3, [pc, #84]	; (829b4 <SystemCoreClockUpdate+0xf0>)
   82960:	600b      	str	r3, [r1, #0]
   82962:	6a12      	ldr	r2, [r2, #32]
   82964:	f002 0270 	and.w	r2, r2, #112	; 0x70
   82968:	2a10      	cmp	r2, #16
   8296a:	d011      	beq.n	82990 <SystemCoreClockUpdate+0xcc>
   8296c:	2a20      	cmp	r2, #32
   8296e:	d1b7      	bne.n	828e0 <SystemCoreClockUpdate+0x1c>
   82970:	4b0c      	ldr	r3, [pc, #48]	; (829a4 <SystemCoreClockUpdate+0xe0>)
   82972:	600b      	str	r3, [r1, #0]
   82974:	e7b4      	b.n	828e0 <SystemCoreClockUpdate+0x1c>
   82976:	4b0b      	ldr	r3, [pc, #44]	; (829a4 <SystemCoreClockUpdate+0xe0>)
   82978:	4909      	ldr	r1, [pc, #36]	; (829a0 <SystemCoreClockUpdate+0xdc>)
   8297a:	e7d0      	b.n	8291e <SystemCoreClockUpdate+0x5a>
   8297c:	6a84      	ldr	r4, [r0, #40]	; 0x28
   8297e:	6a82      	ldr	r2, [r0, #40]	; 0x28
   82980:	f3c4 400a 	ubfx	r0, r4, #16, #11
   82984:	fb00 3303 	mla	r3, r0, r3, r3
   82988:	b2d2      	uxtb	r2, r2
   8298a:	fbb3 f3f2 	udiv	r3, r3, r2
   8298e:	e7c6      	b.n	8291e <SystemCoreClockUpdate+0x5a>
   82990:	4b09      	ldr	r3, [pc, #36]	; (829b8 <SystemCoreClockUpdate+0xf4>)
   82992:	600b      	str	r3, [r1, #0]
   82994:	e7a4      	b.n	828e0 <SystemCoreClockUpdate+0x1c>
   82996:	4b08      	ldr	r3, [pc, #32]	; (829b8 <SystemCoreClockUpdate+0xf4>)
   82998:	e7c1      	b.n	8291e <SystemCoreClockUpdate+0x5a>
   8299a:	bf00      	nop
   8299c:	400e0600 	.word	0x400e0600
   829a0:	200701f8 	.word	0x200701f8
   829a4:	00b71b00 	.word	0x00b71b00
   829a8:	0e4e1c00 	.word	0x0e4e1c00
   829ac:	aaaaaaab 	.word	0xaaaaaaab
   829b0:	400e1a10 	.word	0x400e1a10
   829b4:	003d0900 	.word	0x003d0900
   829b8:	007a1200 	.word	0x007a1200

000829bc <keyboardEnableCallback>:
   829bc:	4b01      	ldr	r3, [pc, #4]	; (829c4 <keyboardEnableCallback+0x8>)
   829be:	2001      	movs	r0, #1
   829c0:	7018      	strb	r0, [r3, #0]
   829c2:	4770      	bx	lr
   829c4:	2007021c 	.word	0x2007021c

000829c8 <keyboardDisableCallback>:
   829c8:	4b01      	ldr	r3, [pc, #4]	; (829d0 <keyboardDisableCallback+0x8>)
   829ca:	2200      	movs	r2, #0
   829cc:	701a      	strb	r2, [r3, #0]
   829ce:	4770      	bx	lr
   829d0:	2007021c 	.word	0x2007021c

000829d4 <main>:
   829d4:	e92d 4ff0 	stmdb	sp!, {r4, r5, r6, r7, r8, r9, sl, fp, lr}
   829d8:	4bd1      	ldr	r3, [pc, #836]	; (82d20 <main+0x34c>)
   829da:	b091      	sub	sp, #68	; 0x44
   829dc:	4798      	blx	r3
   829de:	4bd1      	ldr	r3, [pc, #836]	; (82d24 <main+0x350>)
   829e0:	2501      	movs	r5, #1
   829e2:	701d      	strb	r5, [r3, #0]
   829e4:	f3bf 8f5f 	dmb	sy
   829e8:	b662      	cpsie	i
   829ea:	4ecf      	ldr	r6, [pc, #828]	; (82d28 <main+0x354>)
   829ec:	47b0      	blx	r6
   829ee:	4bcf      	ldr	r3, [pc, #828]	; (82d2c <main+0x358>)
   829f0:	2200      	movs	r2, #0
   829f2:	701a      	strb	r2, [r3, #0]
   829f4:	705a      	strb	r2, [r3, #1]
   829f6:	709a      	strb	r2, [r3, #2]
   829f8:	70da      	strb	r2, [r3, #3]
   829fa:	711a      	strb	r2, [r3, #4]
   829fc:	715d      	strb	r5, [r3, #5]
   829fe:	4ccc      	ldr	r4, [pc, #816]	; (82d30 <main+0x35c>)
   82a00:	47b0      	blx	r6
   82a02:	200b      	movs	r0, #11
   82a04:	47a0      	blx	r4
   82a06:	200c      	movs	r0, #12
   82a08:	47a0      	blx	r4
   82a0a:	200d      	movs	r0, #13
   82a0c:	47a0      	blx	r4
   82a0e:	200e      	movs	r0, #14
   82a10:	47a0      	blx	r4
   82a12:	4bc8      	ldr	r3, [pc, #800]	; (82d34 <main+0x360>)
   82a14:	46ab      	mov	fp, r5
   82a16:	4798      	blx	r3
   82a18:	f8df a328 	ldr.w	sl, [pc, #808]	; 82d44 <main+0x370>
   82a1c:	f8df 9328 	ldr.w	r9, [pc, #808]	; 82d48 <main+0x374>
   82a20:	f8da 300c 	ldr.w	r3, [sl, #12]
   82a24:	f8d9 2008 	ldr.w	r2, [r9, #8]
   82a28:	095c      	lsrs	r4, r3, #5
   82a2a:	f504 1400 	add.w	r4, r4, #2097152	; 0x200000
   82a2e:	f8d9 3000 	ldr.w	r3, [r9]
   82a32:	f204 7407 	addw	r4, r4, #1799	; 0x707
   82a36:	9401      	str	r4, [sp, #4]
   82a38:	0959      	lsrs	r1, r3, #5
   82a3a:	f8da 400c 	ldr.w	r4, [sl, #12]
   82a3e:	f8d9 3004 	ldr.w	r3, [r9, #4]
   82a42:	f501 1100 	add.w	r1, r1, #2097152	; 0x200000
   82a46:	f201 7107 	addw	r1, r1, #1799	; 0x707
   82a4a:	f004 041f 	and.w	r4, r4, #31
   82a4e:	9106      	str	r1, [sp, #24]
   82a50:	fa0b f404 	lsl.w	r4, fp, r4
   82a54:	095b      	lsrs	r3, r3, #5
   82a56:	9405      	str	r4, [sp, #20]
   82a58:	f503 1300 	add.w	r3, r3, #2097152	; 0x200000
   82a5c:	9c06      	ldr	r4, [sp, #24]
   82a5e:	f8d9 1000 	ldr.w	r1, [r9]
   82a62:	f203 7307 	addw	r3, r3, #1799	; 0x707
   82a66:	9307      	str	r3, [sp, #28]
   82a68:	0264      	lsls	r4, r4, #9
   82a6a:	0952      	lsrs	r2, r2, #5
   82a6c:	e89a 4180 	ldmia.w	sl, {r7, r8, lr}
   82a70:	940b      	str	r4, [sp, #44]	; 0x2c
   82a72:	ea4f 1558 	mov.w	r5, r8, lsr #5
   82a76:	9c07      	ldr	r4, [sp, #28]
   82a78:	f502 1200 	add.w	r2, r2, #2097152	; 0x200000
   82a7c:	f001 011f 	and.w	r1, r1, #31
   82a80:	f8d9 000c 	ldr.w	r0, [r9, #12]
   82a84:	f8d9 3004 	ldr.w	r3, [r9, #4]
   82a88:	f202 7207 	addw	r2, r2, #1799	; 0x707
   82a8c:	fa0b f101 	lsl.w	r1, fp, r1
   82a90:	f505 1500 	add.w	r5, r5, #2097152	; 0x200000
   82a94:	9208      	str	r2, [sp, #32]
   82a96:	ea4f 1c5e 	mov.w	ip, lr, lsr #5
   82a9a:	910c      	str	r1, [sp, #48]	; 0x30
   82a9c:	f205 7507 	addw	r5, r5, #1799	; 0x707
   82aa0:	0261      	lsls	r1, r4, #9
   82aa2:	f8d9 2008 	ldr.w	r2, [r9, #8]
   82aa6:	026d      	lsls	r5, r5, #9
   82aa8:	910d      	str	r1, [sp, #52]	; 0x34
   82aaa:	0940      	lsrs	r0, r0, #5
   82aac:	9908      	ldr	r1, [sp, #32]
   82aae:	f50c 1c00 	add.w	ip, ip, #2097152	; 0x200000
   82ab2:	f008 081f 	and.w	r8, r8, #31
   82ab6:	f003 031f 	and.w	r3, r3, #31
   82aba:	9500      	str	r5, [sp, #0]
   82abc:	fa0b f303 	lsl.w	r3, fp, r3
   82ac0:	fa0b f508 	lsl.w	r5, fp, r8
   82ac4:	f500 1000 	add.w	r0, r0, #2097152	; 0x200000
   82ac8:	f20c 7c07 	addw	ip, ip, #1799	; 0x707
   82acc:	f00e 0e1f 	and.w	lr, lr, #31
   82ad0:	f200 7007 	addw	r0, r0, #1799	; 0x707
   82ad4:	9502      	str	r5, [sp, #8]
   82ad6:	930e      	str	r3, [sp, #56]	; 0x38
   82ad8:	ea4f 254c 	mov.w	r5, ip, lsl #9
   82adc:	024b      	lsls	r3, r1, #9
   82ade:	f002 021f 	and.w	r2, r2, #31
   82ae2:	900f      	str	r0, [sp, #60]	; 0x3c
   82ae4:	9503      	str	r5, [sp, #12]
   82ae6:	9309      	str	r3, [sp, #36]	; 0x24
   82ae8:	fa0b f50e 	lsl.w	r5, fp, lr
   82aec:	fa0b f302 	lsl.w	r3, fp, r2
   82af0:	f8d9 000c 	ldr.w	r0, [r9, #12]
   82af4:	9504      	str	r5, [sp, #16]
   82af6:	930a      	str	r3, [sp, #40]	; 0x28
   82af8:	9d01      	ldr	r5, [sp, #4]
   82afa:	9b0f      	ldr	r3, [sp, #60]	; 0x3c
   82afc:	f000 001f 	and.w	r0, r0, #31
   82b00:	025b      	lsls	r3, r3, #9
   82b02:	9308      	str	r3, [sp, #32]
   82b04:	fa0b f300 	lsl.w	r3, fp, r0
   82b08:	930f      	str	r3, [sp, #60]	; 0x3c
   82b0a:	4b8b      	ldr	r3, [pc, #556]	; (82d38 <main+0x364>)
   82b0c:	097e      	lsrs	r6, r7, #5
   82b0e:	f506 1600 	add.w	r6, r6, #2097152	; 0x200000
   82b12:	9307      	str	r3, [sp, #28]
   82b14:	4b89      	ldr	r3, [pc, #548]	; (82d3c <main+0x368>)
   82b16:	f206 7607 	addw	r6, r6, #1799	; 0x707
   82b1a:	f007 071f 	and.w	r7, r7, #31
   82b1e:	ea4f 2e45 	mov.w	lr, r5, lsl #9
   82b22:	9d00      	ldr	r5, [sp, #0]
   82b24:	0276      	lsls	r6, r6, #9
   82b26:	fa0b f707 	lsl.w	r7, fp, r7
   82b2a:	9306      	str	r3, [sp, #24]
   82b2c:	9a0b      	ldr	r2, [sp, #44]	; 0x2c
   82b2e:	9b0c      	ldr	r3, [sp, #48]	; 0x30
   82b30:	9908      	ldr	r1, [sp, #32]
   82b32:	6153      	str	r3, [r2, #20]
   82b34:	f8c2 30a0 	str.w	r3, [r2, #160]	; 0xa0
   82b38:	9a0d      	ldr	r2, [sp, #52]	; 0x34
   82b3a:	9b0e      	ldr	r3, [sp, #56]	; 0x38
   82b3c:	4c80      	ldr	r4, [pc, #512]	; (82d40 <main+0x36c>)
   82b3e:	6153      	str	r3, [r2, #20]
   82b40:	f8c2 30a0 	str.w	r3, [r2, #160]	; 0xa0
   82b44:	9a09      	ldr	r2, [sp, #36]	; 0x24
   82b46:	9b0a      	ldr	r3, [sp, #40]	; 0x28
   82b48:	6153      	str	r3, [r2, #20]
   82b4a:	f8c2 30a0 	str.w	r3, [r2, #160]	; 0xa0
   82b4e:	9b0f      	ldr	r3, [sp, #60]	; 0x3c
   82b50:	614b      	str	r3, [r1, #20]
   82b52:	f8d9 2010 	ldr.w	r2, [r9, #16]
   82b56:	f8c1 30a0 	str.w	r3, [r1, #160]	; 0xa0
   82b5a:	0953      	lsrs	r3, r2, #5
   82b5c:	f503 1300 	add.w	r3, r3, #2097152	; 0x200000
   82b60:	f002 021f 	and.w	r2, r2, #31
   82b64:	f203 7307 	addw	r3, r3, #1799	; 0x707
   82b68:	fa0b f102 	lsl.w	r1, fp, r2
   82b6c:	025b      	lsls	r3, r3, #9
   82b6e:	6159      	str	r1, [r3, #20]
   82b70:	f8d9 2014 	ldr.w	r2, [r9, #20]
   82b74:	f8c3 10a0 	str.w	r1, [r3, #160]	; 0xa0
   82b78:	0953      	lsrs	r3, r2, #5
   82b7a:	f503 1300 	add.w	r3, r3, #2097152	; 0x200000
   82b7e:	f002 021f 	and.w	r2, r2, #31
   82b82:	f203 7307 	addw	r3, r3, #1799	; 0x707
   82b86:	fa0b f102 	lsl.w	r1, fp, r2
   82b8a:	025b      	lsls	r3, r3, #9
   82b8c:	6159      	str	r1, [r3, #20]
   82b8e:	f8d9 2018 	ldr.w	r2, [r9, #24]
   82b92:	f8c3 10a0 	str.w	r1, [r3, #160]	; 0xa0
   82b96:	0953      	lsrs	r3, r2, #5
   82b98:	f503 1300 	add.w	r3, r3, #2097152	; 0x200000
   82b9c:	f002 021f 	and.w	r2, r2, #31
   82ba0:	f203 7307 	addw	r3, r3, #1799	; 0x707
   82ba4:	fa0b f102 	lsl.w	r1, fp, r2
   82ba8:	025b      	lsls	r3, r3, #9
   82baa:	6159      	str	r1, [r3, #20]
   82bac:	f8d9 201c 	ldr.w	r2, [r9, #28]
   82bb0:	f8c3 10a0 	str.w	r1, [r3, #160]	; 0xa0
   82bb4:	0953      	lsrs	r3, r2, #5
   82bb6:	f503 1300 	add.w	r3, r3, #2097152	; 0x200000
   82bba:	f002 021f 	and.w	r2, r2, #31
   82bbe:	f203 7307 	addw	r3, r3, #1799	; 0x707
   82bc2:	fa0b f102 	lsl.w	r1, fp, r2
   82bc6:	025b      	lsls	r3, r3, #9
   82bc8:	6159      	str	r1, [r3, #20]
   82bca:	f8d9 2020 	ldr.w	r2, [r9, #32]
   82bce:	f8c3 10a0 	str.w	r1, [r3, #160]	; 0xa0
   82bd2:	0953      	lsrs	r3, r2, #5
   82bd4:	f503 1300 	add.w	r3, r3, #2097152	; 0x200000
   82bd8:	f002 021f 	and.w	r2, r2, #31
   82bdc:	f203 7307 	addw	r3, r3, #1799	; 0x707
   82be0:	fa0b f102 	lsl.w	r1, fp, r2
   82be4:	025b      	lsls	r3, r3, #9
   82be6:	6159      	str	r1, [r3, #20]
   82be8:	f8d9 2024 	ldr.w	r2, [r9, #36]	; 0x24
   82bec:	f8c3 10a0 	str.w	r1, [r3, #160]	; 0xa0
   82bf0:	0953      	lsrs	r3, r2, #5
   82bf2:	f503 1300 	add.w	r3, r3, #2097152	; 0x200000
   82bf6:	f002 021f 	and.w	r2, r2, #31
   82bfa:	f203 7307 	addw	r3, r3, #1799	; 0x707
   82bfe:	fa0b f102 	lsl.w	r1, fp, r2
   82c02:	025b      	lsls	r3, r3, #9
   82c04:	6159      	str	r1, [r3, #20]
   82c06:	f8d9 2028 	ldr.w	r2, [r9, #40]	; 0x28
   82c0a:	f8c3 10a0 	str.w	r1, [r3, #160]	; 0xa0
   82c0e:	0953      	lsrs	r3, r2, #5
   82c10:	f503 1300 	add.w	r3, r3, #2097152	; 0x200000
   82c14:	f002 021f 	and.w	r2, r2, #31
   82c18:	f203 7307 	addw	r3, r3, #1799	; 0x707
   82c1c:	fa0b f102 	lsl.w	r1, fp, r2
   82c20:	025b      	lsls	r3, r3, #9
   82c22:	6159      	str	r1, [r3, #20]
   82c24:	f8d9 202c 	ldr.w	r2, [r9, #44]	; 0x2c
   82c28:	f8c3 10a0 	str.w	r1, [r3, #160]	; 0xa0
   82c2c:	0953      	lsrs	r3, r2, #5
   82c2e:	f503 1300 	add.w	r3, r3, #2097152	; 0x200000
   82c32:	f002 021f 	and.w	r2, r2, #31
   82c36:	f203 7307 	addw	r3, r3, #1799	; 0x707
   82c3a:	fa0b f102 	lsl.w	r1, fp, r2
   82c3e:	025b      	lsls	r3, r3, #9
   82c40:	6159      	str	r1, [r3, #20]
   82c42:	f8d9 2030 	ldr.w	r2, [r9, #48]	; 0x30
   82c46:	f8c3 10a0 	str.w	r1, [r3, #160]	; 0xa0
   82c4a:	0953      	lsrs	r3, r2, #5
   82c4c:	f503 1300 	add.w	r3, r3, #2097152	; 0x200000
   82c50:	f002 021f 	and.w	r2, r2, #31
   82c54:	f203 7307 	addw	r3, r3, #1799	; 0x707
   82c58:	fa0b f102 	lsl.w	r1, fp, r2
   82c5c:	025b      	lsls	r3, r3, #9
   82c5e:	6159      	str	r1, [r3, #20]
   82c60:	f8d9 2034 	ldr.w	r2, [r9, #52]	; 0x34
   82c64:	f8c3 10a0 	str.w	r1, [r3, #160]	; 0xa0
   82c68:	0953      	lsrs	r3, r2, #5
   82c6a:	f503 1300 	add.w	r3, r3, #2097152	; 0x200000
   82c6e:	f002 021f 	and.w	r2, r2, #31
   82c72:	f203 7307 	addw	r3, r3, #1799	; 0x707
   82c76:	fa0b f102 	lsl.w	r1, fp, r2
   82c7a:	025b      	lsls	r3, r3, #9
   82c7c:	6159      	str	r1, [r3, #20]
   82c7e:	f8d9 2038 	ldr.w	r2, [r9, #56]	; 0x38
   82c82:	f8c3 10a0 	str.w	r1, [r3, #160]	; 0xa0
   82c86:	0953      	lsrs	r3, r2, #5
   82c88:	f503 1300 	add.w	r3, r3, #2097152	; 0x200000
   82c8c:	f002 021f 	and.w	r2, r2, #31
   82c90:	f203 7307 	addw	r3, r3, #1799	; 0x707
   82c94:	fa0b f102 	lsl.w	r1, fp, r2
   82c98:	025b      	lsls	r3, r3, #9
   82c9a:	6159      	str	r1, [r3, #20]
   82c9c:	f8d9 203c 	ldr.w	r2, [r9, #60]	; 0x3c
   82ca0:	f8c3 10a0 	str.w	r1, [r3, #160]	; 0xa0
   82ca4:	0953      	lsrs	r3, r2, #5
   82ca6:	f503 1300 	add.w	r3, r3, #2097152	; 0x200000
   82caa:	f203 7307 	addw	r3, r3, #1799	; 0x707
   82cae:	f002 021f 	and.w	r2, r2, #31
   82cb2:	025b      	lsls	r3, r3, #9
   82cb4:	fa0b f202 	lsl.w	r2, fp, r2
   82cb8:	615a      	str	r2, [r3, #20]
   82cba:	f8c3 20a0 	str.w	r2, [r3, #160]	; 0xa0
   82cbe:	9b07      	ldr	r3, [sp, #28]
   82cc0:	9400      	str	r4, [sp, #0]
   82cc2:	f853 2f04 	ldr.w	r2, [r3, #4]!
   82cc6:	9c03      	ldr	r4, [sp, #12]
   82cc8:	4619      	mov	r1, r3
   82cca:	9307      	str	r3, [sp, #28]
   82ccc:	0953      	lsrs	r3, r2, #5
   82cce:	f503 1300 	add.w	r3, r3, #2097152	; 0x200000
   82cd2:	f203 7307 	addw	r3, r3, #1799	; 0x707
   82cd6:	f002 021f 	and.w	r2, r2, #31
   82cda:	025b      	lsls	r3, r3, #9
   82cdc:	fa0b f202 	lsl.w	r2, fp, r2
   82ce0:	611a      	str	r2, [r3, #16]
   82ce2:	f8c3 20a0 	str.w	r2, [r3, #160]	; 0xa0
   82ce6:	6808      	ldr	r0, [r1, #0]
   82ce8:	f8da 2010 	ldr.w	r2, [sl, #16]
   82cec:	0943      	lsrs	r3, r0, #5
   82cee:	f503 1300 	add.w	r3, r3, #2097152	; 0x200000
   82cf2:	f203 7307 	addw	r3, r3, #1799	; 0x707
   82cf6:	f000 001f 	and.w	r0, r0, #31
   82cfa:	0951      	lsrs	r1, r2, #5
   82cfc:	025b      	lsls	r3, r3, #9
   82cfe:	fa0b f000 	lsl.w	r0, fp, r0
   82d02:	f002 021f 	and.w	r2, r2, #31
   82d06:	6358      	str	r0, [r3, #52]	; 0x34
   82d08:	fa0b f002 	lsl.w	r0, fp, r2
   82d0c:	9a06      	ldr	r2, [sp, #24]
   82d0e:	f501 1100 	add.w	r1, r1, #2097152	; 0x200000
   82d12:	4613      	mov	r3, r2
   82d14:	f201 7107 	addw	r1, r1, #1799	; 0x707
   82d18:	3309      	adds	r3, #9
   82d1a:	0249      	lsls	r1, r1, #9
   82d1c:	9301      	str	r3, [sp, #4]
   82d1e:	e015      	b.n	82d4c <main+0x378>
   82d20:	000820a1 	.word	0x000820a1
   82d24:	200701f6 	.word	0x200701f6
   82d28:	00082105 	.word	0x00082105
   82d2c:	200707e8 	.word	0x200707e8
   82d30:	000827b1 	.word	0x000827b1
   82d34:	00080555 	.word	0x00080555
   82d38:	2007021c 	.word	0x2007021c
   82d3c:	2007076f 	.word	0x2007076f
   82d40:	200701f8 	.word	0x200701f8
   82d44:	200701fc 	.word	0x200701fc
   82d48:	20070220 	.word	0x20070220
   82d4c:	9b02      	ldr	r3, [sp, #8]
   82d4e:	6177      	str	r7, [r6, #20]
   82d50:	f8c6 70a0 	str.w	r7, [r6, #160]	; 0xa0
   82d54:	616b      	str	r3, [r5, #20]
   82d56:	f8c5 30a0 	str.w	r3, [r5, #160]	; 0xa0
   82d5a:	9b04      	ldr	r3, [sp, #16]
   82d5c:	6163      	str	r3, [r4, #20]
   82d5e:	f8c4 30a0 	str.w	r3, [r4, #160]	; 0xa0
   82d62:	9b05      	ldr	r3, [sp, #20]
   82d64:	f8ce 3014 	str.w	r3, [lr, #20]
   82d68:	f8ce 30a0 	str.w	r3, [lr, #160]	; 0xa0
   82d6c:	6148      	str	r0, [r1, #20]
   82d6e:	f8da c014 	ldr.w	ip, [sl, #20]
   82d72:	f8c1 00a0 	str.w	r0, [r1, #160]	; 0xa0
   82d76:	ea4f 135c 	mov.w	r3, ip, lsr #5
   82d7a:	f503 1300 	add.w	r3, r3, #2097152	; 0x200000
   82d7e:	f00c 0c1f 	and.w	ip, ip, #31
   82d82:	f203 7307 	addw	r3, r3, #1799	; 0x707
   82d86:	fa0b f80c 	lsl.w	r8, fp, ip
   82d8a:	025b      	lsls	r3, r3, #9
   82d8c:	f8c3 8014 	str.w	r8, [r3, #20]
   82d90:	f8da c018 	ldr.w	ip, [sl, #24]
   82d94:	f8c3 80a0 	str.w	r8, [r3, #160]	; 0xa0
   82d98:	ea4f 135c 	mov.w	r3, ip, lsr #5
   82d9c:	f503 1300 	add.w	r3, r3, #2097152	; 0x200000
   82da0:	f00c 0c1f 	and.w	ip, ip, #31
   82da4:	f203 7307 	addw	r3, r3, #1799	; 0x707
   82da8:	025b      	lsls	r3, r3, #9
   82daa:	fa0b f80c 	lsl.w	r8, fp, ip
   82dae:	f8c3 8014 	str.w	r8, [r3, #20]
   82db2:	f8da c01c 	ldr.w	ip, [sl, #28]
   82db6:	f8c3 80a0 	str.w	r8, [r3, #160]	; 0xa0
   82dba:	ea4f 135c 	mov.w	r3, ip, lsr #5
   82dbe:	f503 1300 	add.w	r3, r3, #2097152	; 0x200000
   82dc2:	f203 7307 	addw	r3, r3, #1799	; 0x707
   82dc6:	f00c 0c1f 	and.w	ip, ip, #31
   82dca:	025b      	lsls	r3, r3, #9
   82dcc:	fa0b fc0c 	lsl.w	ip, fp, ip
   82dd0:	f8c3 c014 	str.w	ip, [r3, #20]
   82dd4:	f8c3 c0a0 	str.w	ip, [r3, #160]	; 0xa0
   82dd8:	f8da c020 	ldr.w	ip, [sl, #32]
   82ddc:	ea4f 135c 	mov.w	r3, ip, lsr #5
   82de0:	f503 1300 	add.w	r3, r3, #2097152	; 0x200000
   82de4:	f203 7307 	addw	r3, r3, #1799	; 0x707
   82de8:	f00c 0c1f 	and.w	ip, ip, #31
   82dec:	025b      	lsls	r3, r3, #9
   82dee:	fa0b fc0c 	lsl.w	ip, fp, ip
   82df2:	f8c3 c014 	str.w	ip, [r3, #20]
   82df6:	f8c3 c0a0 	str.w	ip, [r3, #160]	; 0xa0
   82dfa:	9b00      	ldr	r3, [sp, #0]
   82dfc:	f853 cf04 	ldr.w	ip, [r3, #4]!
   82e00:	9300      	str	r3, [sp, #0]
   82e02:	ea4f 135c 	mov.w	r3, ip, lsr #5
   82e06:	f503 1300 	add.w	r3, r3, #2097152	; 0x200000
   82e0a:	f203 7307 	addw	r3, r3, #1799	; 0x707
   82e0e:	025b      	lsls	r3, r3, #9
   82e10:	6bdb      	ldr	r3, [r3, #60]	; 0x3c
   82e12:	f00c 0c1f 	and.w	ip, ip, #31
   82e16:	fa0b fc0c 	lsl.w	ip, fp, ip
   82e1a:	ea1c 0f03 	tst.w	ip, r3
   82e1e:	bf0c      	ite	eq
   82e20:	2301      	moveq	r3, #1
   82e22:	2300      	movne	r3, #0
   82e24:	f802 3f01 	strb.w	r3, [r2, #1]!
   82e28:	9b01      	ldr	r3, [sp, #4]
   82e2a:	429a      	cmp	r2, r3
   82e2c:	d18e      	bne.n	82d4c <main+0x378>
   82e2e:	9b06      	ldr	r3, [sp, #24]
   82e30:	4a78      	ldr	r2, [pc, #480]	; (83014 <main+0x640>)
   82e32:	3308      	adds	r3, #8
   82e34:	4293      	cmp	r3, r2
   82e36:	9306      	str	r3, [sp, #24]
   82e38:	f47f ae78 	bne.w	82b2c <main+0x158>
   82e3c:	4c76      	ldr	r4, [pc, #472]	; (83018 <main+0x644>)
   82e3e:	4d77      	ldr	r5, [pc, #476]	; (8301c <main+0x648>)
   82e40:	f8df 81dc 	ldr.w	r8, [pc, #476]	; 83020 <main+0x64c>
   82e44:	f104 0780 	add.w	r7, r4, #128	; 0x80
   82e48:	f1a5 0620 	sub.w	r6, r5, #32
   82e4c:	e00e      	b.n	82e6c <main+0x498>
   82e4e:	4b74      	ldr	r3, [pc, #464]	; (83020 <main+0x64c>)
   82e50:	f855 0c20 	ldr.w	r0, [r5, #-32]
   82e54:	781b      	ldrb	r3, [r3, #0]
   82e56:	2b00      	cmp	r3, #0
   82e58:	f040 80d8 	bne.w	8300c <main+0x638>
   82e5c:	3408      	adds	r4, #8
   82e5e:	42bc      	cmp	r4, r7
   82e60:	f105 0520 	add.w	r5, r5, #32
   82e64:	f106 0620 	add.w	r6, r6, #32
   82e68:	f43f adda 	beq.w	82a20 <main+0x4c>
   82e6c:	7823      	ldrb	r3, [r4, #0]
   82e6e:	2b00      	cmp	r3, #0
   82e70:	d0ed      	beq.n	82e4e <main+0x47a>
   82e72:	4b6b      	ldr	r3, [pc, #428]	; (83020 <main+0x64c>)
   82e74:	f855 0c20 	ldr.w	r0, [r5, #-32]
   82e78:	781b      	ldrb	r3, [r3, #0]
   82e7a:	2b00      	cmp	r3, #0
   82e7c:	d0ee      	beq.n	82e5c <main+0x488>
   82e7e:	b2c0      	uxtb	r0, r0
   82e80:	4b68      	ldr	r3, [pc, #416]	; (83024 <main+0x650>)
   82e82:	4798      	blx	r3
   82e84:	7863      	ldrb	r3, [r4, #1]
   82e86:	2b00      	cmp	r3, #0
   82e88:	d15c      	bne.n	82f44 <main+0x570>
   82e8a:	4b65      	ldr	r3, [pc, #404]	; (83020 <main+0x64c>)
   82e8c:	f855 0c1c 	ldr.w	r0, [r5, #-28]
   82e90:	781b      	ldrb	r3, [r3, #0]
   82e92:	2b00      	cmp	r3, #0
   82e94:	d0e2      	beq.n	82e5c <main+0x488>
   82e96:	4b64      	ldr	r3, [pc, #400]	; (83028 <main+0x654>)
   82e98:	b2c0      	uxtb	r0, r0
   82e9a:	4798      	blx	r3
   82e9c:	78a3      	ldrb	r3, [r4, #2]
   82e9e:	f898 2000 	ldrb.w	r2, [r8]
   82ea2:	f855 0c18 	ldr.w	r0, [r5, #-24]
   82ea6:	2b00      	cmp	r3, #0
   82ea8:	d15c      	bne.n	82f64 <main+0x590>
   82eaa:	2a00      	cmp	r2, #0
   82eac:	d0d6      	beq.n	82e5c <main+0x488>
   82eae:	4b5e      	ldr	r3, [pc, #376]	; (83028 <main+0x654>)
   82eb0:	b2c0      	uxtb	r0, r0
   82eb2:	4798      	blx	r3
   82eb4:	4b5a      	ldr	r3, [pc, #360]	; (83020 <main+0x64c>)
   82eb6:	f855 0c14 	ldr.w	r0, [r5, #-20]
   82eba:	781a      	ldrb	r2, [r3, #0]
   82ebc:	78e3      	ldrb	r3, [r4, #3]
   82ebe:	2b00      	cmp	r3, #0
   82ec0:	d15d      	bne.n	82f7e <main+0x5aa>
   82ec2:	2a00      	cmp	r2, #0
   82ec4:	d0ca      	beq.n	82e5c <main+0x488>
   82ec6:	4b58      	ldr	r3, [pc, #352]	; (83028 <main+0x654>)
   82ec8:	b2c0      	uxtb	r0, r0
   82eca:	4798      	blx	r3
   82ecc:	4b54      	ldr	r3, [pc, #336]	; (83020 <main+0x64c>)
   82ece:	f855 0c10 	ldr.w	r0, [r5, #-16]
   82ed2:	781a      	ldrb	r2, [r3, #0]
   82ed4:	7923      	ldrb	r3, [r4, #4]
   82ed6:	2b00      	cmp	r3, #0
   82ed8:	d15e      	bne.n	82f98 <main+0x5c4>
   82eda:	2a00      	cmp	r2, #0
   82edc:	d0be      	beq.n	82e5c <main+0x488>
   82ede:	4b52      	ldr	r3, [pc, #328]	; (83028 <main+0x654>)
   82ee0:	b2c0      	uxtb	r0, r0
   82ee2:	4798      	blx	r3
   82ee4:	4b4e      	ldr	r3, [pc, #312]	; (83020 <main+0x64c>)
   82ee6:	f855 0c0c 	ldr.w	r0, [r5, #-12]
   82eea:	781a      	ldrb	r2, [r3, #0]
   82eec:	7963      	ldrb	r3, [r4, #5]
   82eee:	2b00      	cmp	r3, #0
   82ef0:	d15f      	bne.n	82fb2 <main+0x5de>
   82ef2:	2a00      	cmp	r2, #0
   82ef4:	d0b2      	beq.n	82e5c <main+0x488>
   82ef6:	4b4c      	ldr	r3, [pc, #304]	; (83028 <main+0x654>)
   82ef8:	b2c0      	uxtb	r0, r0
   82efa:	4798      	blx	r3
   82efc:	4b48      	ldr	r3, [pc, #288]	; (83020 <main+0x64c>)
   82efe:	f855 0c08 	ldr.w	r0, [r5, #-8]
   82f02:	781a      	ldrb	r2, [r3, #0]
   82f04:	79a3      	ldrb	r3, [r4, #6]
   82f06:	2b00      	cmp	r3, #0
   82f08:	d160      	bne.n	82fcc <main+0x5f8>
   82f0a:	2a00      	cmp	r2, #0
   82f0c:	d0a6      	beq.n	82e5c <main+0x488>
   82f0e:	4b46      	ldr	r3, [pc, #280]	; (83028 <main+0x654>)
   82f10:	b2c0      	uxtb	r0, r0
   82f12:	4798      	blx	r3
   82f14:	4b42      	ldr	r3, [pc, #264]	; (83020 <main+0x64c>)
   82f16:	f855 0c04 	ldr.w	r0, [r5, #-4]
   82f1a:	781a      	ldrb	r2, [r3, #0]
   82f1c:	79e3      	ldrb	r3, [r4, #7]
   82f1e:	2b00      	cmp	r3, #0
   82f20:	d161      	bne.n	82fe6 <main+0x612>
   82f22:	2a00      	cmp	r2, #0
   82f24:	d09a      	beq.n	82e5c <main+0x488>
   82f26:	4b40      	ldr	r3, [pc, #256]	; (83028 <main+0x654>)
   82f28:	b2c0      	uxtb	r0, r0
   82f2a:	4798      	blx	r3
   82f2c:	4b3c      	ldr	r3, [pc, #240]	; (83020 <main+0x64c>)
   82f2e:	6a30      	ldr	r0, [r6, #32]
   82f30:	781a      	ldrb	r2, [r3, #0]
   82f32:	7a23      	ldrb	r3, [r4, #8]
   82f34:	2b00      	cmp	r3, #0
   82f36:	d162      	bne.n	82ffe <main+0x62a>
   82f38:	2a00      	cmp	r2, #0
   82f3a:	d08f      	beq.n	82e5c <main+0x488>
   82f3c:	4b3a      	ldr	r3, [pc, #232]	; (83028 <main+0x654>)
   82f3e:	b2c0      	uxtb	r0, r0
   82f40:	4798      	blx	r3
   82f42:	e78b      	b.n	82e5c <main+0x488>
   82f44:	4b36      	ldr	r3, [pc, #216]	; (83020 <main+0x64c>)
   82f46:	f855 0c1c 	ldr.w	r0, [r5, #-28]
   82f4a:	781b      	ldrb	r3, [r3, #0]
   82f4c:	2b00      	cmp	r3, #0
   82f4e:	d085      	beq.n	82e5c <main+0x488>
   82f50:	4b34      	ldr	r3, [pc, #208]	; (83024 <main+0x650>)
   82f52:	b2c0      	uxtb	r0, r0
   82f54:	4798      	blx	r3
   82f56:	78a3      	ldrb	r3, [r4, #2]
   82f58:	f898 2000 	ldrb.w	r2, [r8]
   82f5c:	f855 0c18 	ldr.w	r0, [r5, #-24]
   82f60:	2b00      	cmp	r3, #0
   82f62:	d0a2      	beq.n	82eaa <main+0x4d6>
   82f64:	2a00      	cmp	r2, #0
   82f66:	f43f af79 	beq.w	82e5c <main+0x488>
   82f6a:	4b2e      	ldr	r3, [pc, #184]	; (83024 <main+0x650>)
   82f6c:	b2c0      	uxtb	r0, r0
   82f6e:	4798      	blx	r3
   82f70:	4b2b      	ldr	r3, [pc, #172]	; (83020 <main+0x64c>)
   82f72:	f855 0c14 	ldr.w	r0, [r5, #-20]
   82f76:	781a      	ldrb	r2, [r3, #0]
   82f78:	78e3      	ldrb	r3, [r4, #3]
   82f7a:	2b00      	cmp	r3, #0
   82f7c:	d0a1      	beq.n	82ec2 <main+0x4ee>
   82f7e:	2a00      	cmp	r2, #0
   82f80:	f43f af6c 	beq.w	82e5c <main+0x488>
   82f84:	4b27      	ldr	r3, [pc, #156]	; (83024 <main+0x650>)
   82f86:	b2c0      	uxtb	r0, r0
   82f88:	4798      	blx	r3
   82f8a:	4b25      	ldr	r3, [pc, #148]	; (83020 <main+0x64c>)
   82f8c:	f855 0c10 	ldr.w	r0, [r5, #-16]
   82f90:	781a      	ldrb	r2, [r3, #0]
   82f92:	7923      	ldrb	r3, [r4, #4]
   82f94:	2b00      	cmp	r3, #0
   82f96:	d0a0      	beq.n	82eda <main+0x506>
   82f98:	2a00      	cmp	r2, #0
   82f9a:	f43f af5f 	beq.w	82e5c <main+0x488>
   82f9e:	4b21      	ldr	r3, [pc, #132]	; (83024 <main+0x650>)
   82fa0:	b2c0      	uxtb	r0, r0
   82fa2:	4798      	blx	r3
   82fa4:	4b1e      	ldr	r3, [pc, #120]	; (83020 <main+0x64c>)
   82fa6:	f855 0c0c 	ldr.w	r0, [r5, #-12]
   82faa:	781a      	ldrb	r2, [r3, #0]
   82fac:	7963      	ldrb	r3, [r4, #5]
   82fae:	2b00      	cmp	r3, #0
   82fb0:	d09f      	beq.n	82ef2 <main+0x51e>
   82fb2:	2a00      	cmp	r2, #0
   82fb4:	f43f af52 	beq.w	82e5c <main+0x488>
   82fb8:	4b1a      	ldr	r3, [pc, #104]	; (83024 <main+0x650>)
   82fba:	b2c0      	uxtb	r0, r0
   82fbc:	4798      	blx	r3
   82fbe:	4b18      	ldr	r3, [pc, #96]	; (83020 <main+0x64c>)
   82fc0:	f855 0c08 	ldr.w	r0, [r5, #-8]
   82fc4:	781a      	ldrb	r2, [r3, #0]
   82fc6:	79a3      	ldrb	r3, [r4, #6]
   82fc8:	2b00      	cmp	r3, #0
   82fca:	d09e      	beq.n	82f0a <main+0x536>
   82fcc:	2a00      	cmp	r2, #0
   82fce:	f43f af45 	beq.w	82e5c <main+0x488>
   82fd2:	4b14      	ldr	r3, [pc, #80]	; (83024 <main+0x650>)
   82fd4:	b2c0      	uxtb	r0, r0
   82fd6:	4798      	blx	r3
   82fd8:	4b11      	ldr	r3, [pc, #68]	; (83020 <main+0x64c>)
   82fda:	f855 0c04 	ldr.w	r0, [r5, #-4]
   82fde:	781a      	ldrb	r2, [r3, #0]
   82fe0:	79e3      	ldrb	r3, [r4, #7]
   82fe2:	2b00      	cmp	r3, #0
   82fe4:	d09d      	beq.n	82f22 <main+0x54e>
   82fe6:	2a00      	cmp	r2, #0
   82fe8:	f43f af38 	beq.w	82e5c <main+0x488>
   82fec:	4b0d      	ldr	r3, [pc, #52]	; (83024 <main+0x650>)
   82fee:	b2c0      	uxtb	r0, r0
   82ff0:	4798      	blx	r3
   82ff2:	4b0b      	ldr	r3, [pc, #44]	; (83020 <main+0x64c>)
   82ff4:	6a30      	ldr	r0, [r6, #32]
   82ff6:	781a      	ldrb	r2, [r3, #0]
   82ff8:	7a23      	ldrb	r3, [r4, #8]
   82ffa:	2b00      	cmp	r3, #0
   82ffc:	d09c      	beq.n	82f38 <main+0x564>
   82ffe:	2a00      	cmp	r2, #0
   83000:	f43f af2c 	beq.w	82e5c <main+0x488>
   83004:	4b07      	ldr	r3, [pc, #28]	; (83024 <main+0x650>)
   83006:	b2c0      	uxtb	r0, r0
   83008:	4798      	blx	r3
   8300a:	e727      	b.n	82e5c <main+0x488>
   8300c:	4b06      	ldr	r3, [pc, #24]	; (83028 <main+0x654>)
   8300e:	b2c0      	uxtb	r0, r0
   83010:	4798      	blx	r3
   83012:	e737      	b.n	82e84 <main+0x4b0>
   83014:	200707ef 	.word	0x200707ef
   83018:	20070770 	.word	0x20070770
   8301c:	0008331c 	.word	0x0008331c
   83020:	2007021c 	.word	0x2007021c
   83024:	00080351 	.word	0x00080351
   83028:	00080249 	.word	0x00080249

0008302c <__libc_init_array>:
   8302c:	b570      	push	{r4, r5, r6, lr}
   8302e:	4e0f      	ldr	r6, [pc, #60]	; (8306c <__libc_init_array+0x40>)
   83030:	4d0f      	ldr	r5, [pc, #60]	; (83070 <__libc_init_array+0x44>)
   83032:	1b76      	subs	r6, r6, r5
   83034:	10b6      	asrs	r6, r6, #2
   83036:	bf18      	it	ne
   83038:	2400      	movne	r4, #0
   8303a:	d005      	beq.n	83048 <__libc_init_array+0x1c>
   8303c:	3401      	adds	r4, #1
   8303e:	f855 3b04 	ldr.w	r3, [r5], #4
   83042:	4798      	blx	r3
   83044:	42a6      	cmp	r6, r4
   83046:	d1f9      	bne.n	8303c <__libc_init_array+0x10>
   83048:	4e0a      	ldr	r6, [pc, #40]	; (83074 <__libc_init_array+0x48>)
   8304a:	4d0b      	ldr	r5, [pc, #44]	; (83078 <__libc_init_array+0x4c>)
   8304c:	f000 fa4a 	bl	834e4 <_init>
   83050:	1b76      	subs	r6, r6, r5
   83052:	10b6      	asrs	r6, r6, #2
   83054:	bf18      	it	ne
   83056:	2400      	movne	r4, #0
   83058:	d006      	beq.n	83068 <__libc_init_array+0x3c>
   8305a:	3401      	adds	r4, #1
   8305c:	f855 3b04 	ldr.w	r3, [r5], #4
   83060:	4798      	blx	r3
   83062:	42a6      	cmp	r6, r4
   83064:	d1f9      	bne.n	8305a <__libc_init_array+0x2e>
   83066:	bd70      	pop	{r4, r5, r6, pc}
   83068:	bd70      	pop	{r4, r5, r6, pc}
   8306a:	bf00      	nop
   8306c:	000834f0 	.word	0x000834f0
   83070:	000834f0 	.word	0x000834f0
   83074:	000834f8 	.word	0x000834f8
   83078:	000834f0 	.word	0x000834f0

0008307c <memcpy>:
   8307c:	4684      	mov	ip, r0
   8307e:	ea41 0300 	orr.w	r3, r1, r0
   83082:	f013 0303 	ands.w	r3, r3, #3
   83086:	d149      	bne.n	8311c <memcpy+0xa0>
   83088:	3a40      	subs	r2, #64	; 0x40
   8308a:	d323      	bcc.n	830d4 <memcpy+0x58>
   8308c:	680b      	ldr	r3, [r1, #0]
   8308e:	6003      	str	r3, [r0, #0]
   83090:	684b      	ldr	r3, [r1, #4]
   83092:	6043      	str	r3, [r0, #4]
   83094:	688b      	ldr	r3, [r1, #8]
   83096:	6083      	str	r3, [r0, #8]
   83098:	68cb      	ldr	r3, [r1, #12]
   8309a:	60c3      	str	r3, [r0, #12]
   8309c:	690b      	ldr	r3, [r1, #16]
   8309e:	6103      	str	r3, [r0, #16]
   830a0:	694b      	ldr	r3, [r1, #20]
   830a2:	6143      	str	r3, [r0, #20]
   830a4:	698b      	ldr	r3, [r1, #24]
   830a6:	6183      	str	r3, [r0, #24]
   830a8:	69cb      	ldr	r3, [r1, #28]
   830aa:	61c3      	str	r3, [r0, #28]
   830ac:	6a0b      	ldr	r3, [r1, #32]
   830ae:	6203      	str	r3, [r0, #32]
   830b0:	6a4b      	ldr	r3, [r1, #36]	; 0x24
   830b2:	6243      	str	r3, [r0, #36]	; 0x24
   830b4:	6a8b      	ldr	r3, [r1, #40]	; 0x28
   830b6:	6283      	str	r3, [r0, #40]	; 0x28
   830b8:	6acb      	ldr	r3, [r1, #44]	; 0x2c
   830ba:	62c3      	str	r3, [r0, #44]	; 0x2c
   830bc:	6b0b      	ldr	r3, [r1, #48]	; 0x30
   830be:	6303      	str	r3, [r0, #48]	; 0x30
   830c0:	6b4b      	ldr	r3, [r1, #52]	; 0x34
   830c2:	6343      	str	r3, [r0, #52]	; 0x34
   830c4:	6b8b      	ldr	r3, [r1, #56]	; 0x38
   830c6:	6383      	str	r3, [r0, #56]	; 0x38
   830c8:	6bcb      	ldr	r3, [r1, #60]	; 0x3c
   830ca:	63c3      	str	r3, [r0, #60]	; 0x3c
   830cc:	3040      	adds	r0, #64	; 0x40
   830ce:	3140      	adds	r1, #64	; 0x40
   830d0:	3a40      	subs	r2, #64	; 0x40
   830d2:	d2db      	bcs.n	8308c <memcpy+0x10>
   830d4:	3230      	adds	r2, #48	; 0x30
   830d6:	d30b      	bcc.n	830f0 <memcpy+0x74>
   830d8:	680b      	ldr	r3, [r1, #0]
   830da:	6003      	str	r3, [r0, #0]
   830dc:	684b      	ldr	r3, [r1, #4]
   830de:	6043      	str	r3, [r0, #4]
   830e0:	688b      	ldr	r3, [r1, #8]
   830e2:	6083      	str	r3, [r0, #8]
   830e4:	68cb      	ldr	r3, [r1, #12]
   830e6:	60c3      	str	r3, [r0, #12]
   830e8:	3010      	adds	r0, #16
   830ea:	3110      	adds	r1, #16
   830ec:	3a10      	subs	r2, #16
   830ee:	d2f3      	bcs.n	830d8 <memcpy+0x5c>
   830f0:	320c      	adds	r2, #12
   830f2:	d305      	bcc.n	83100 <memcpy+0x84>
   830f4:	f851 3b04 	ldr.w	r3, [r1], #4
   830f8:	f840 3b04 	str.w	r3, [r0], #4
   830fc:	3a04      	subs	r2, #4
   830fe:	d2f9      	bcs.n	830f4 <memcpy+0x78>
   83100:	3204      	adds	r2, #4
   83102:	d008      	beq.n	83116 <memcpy+0x9a>
   83104:	07d2      	lsls	r2, r2, #31
   83106:	bf1c      	itt	ne
   83108:	f811 3b01 	ldrbne.w	r3, [r1], #1
   8310c:	f800 3b01 	strbne.w	r3, [r0], #1
   83110:	d301      	bcc.n	83116 <memcpy+0x9a>
   83112:	880b      	ldrh	r3, [r1, #0]
   83114:	8003      	strh	r3, [r0, #0]
   83116:	4660      	mov	r0, ip
   83118:	4770      	bx	lr
   8311a:	bf00      	nop
   8311c:	2a08      	cmp	r2, #8
   8311e:	d313      	bcc.n	83148 <memcpy+0xcc>
   83120:	078b      	lsls	r3, r1, #30
   83122:	d0b1      	beq.n	83088 <memcpy+0xc>
   83124:	f010 0303 	ands.w	r3, r0, #3
   83128:	d0ae      	beq.n	83088 <memcpy+0xc>
   8312a:	f1c3 0304 	rsb	r3, r3, #4
   8312e:	1ad2      	subs	r2, r2, r3
   83130:	07db      	lsls	r3, r3, #31
   83132:	bf1c      	itt	ne
   83134:	f811 3b01 	ldrbne.w	r3, [r1], #1
   83138:	f800 3b01 	strbne.w	r3, [r0], #1
   8313c:	d3a4      	bcc.n	83088 <memcpy+0xc>
   8313e:	f831 3b02 	ldrh.w	r3, [r1], #2
   83142:	f820 3b02 	strh.w	r3, [r0], #2
   83146:	e79f      	b.n	83088 <memcpy+0xc>
   83148:	3a04      	subs	r2, #4
   8314a:	d3d9      	bcc.n	83100 <memcpy+0x84>
   8314c:	3a01      	subs	r2, #1
   8314e:	f811 3b01 	ldrb.w	r3, [r1], #1
   83152:	f800 3b01 	strb.w	r3, [r0], #1
   83156:	d2f9      	bcs.n	8314c <memcpy+0xd0>
   83158:	780b      	ldrb	r3, [r1, #0]
   8315a:	7003      	strb	r3, [r0, #0]
   8315c:	784b      	ldrb	r3, [r1, #1]
   8315e:	7043      	strb	r3, [r0, #1]
   83160:	788b      	ldrb	r3, [r1, #2]
   83162:	7083      	strb	r3, [r0, #2]
   83164:	4660      	mov	r0, ip
   83166:	4770      	bx	lr

00083168 <memset>:
   83168:	b470      	push	{r4, r5, r6}
   8316a:	0784      	lsls	r4, r0, #30
   8316c:	d046      	beq.n	831fc <memset+0x94>
   8316e:	1e54      	subs	r4, r2, #1
   83170:	2a00      	cmp	r2, #0
   83172:	d041      	beq.n	831f8 <memset+0x90>
   83174:	b2cd      	uxtb	r5, r1
   83176:	4603      	mov	r3, r0
   83178:	e002      	b.n	83180 <memset+0x18>
   8317a:	1e62      	subs	r2, r4, #1
   8317c:	b3e4      	cbz	r4, 831f8 <memset+0x90>
   8317e:	4614      	mov	r4, r2
   83180:	f803 5b01 	strb.w	r5, [r3], #1
   83184:	079a      	lsls	r2, r3, #30
   83186:	d1f8      	bne.n	8317a <memset+0x12>
   83188:	2c03      	cmp	r4, #3
   8318a:	d92e      	bls.n	831ea <memset+0x82>
   8318c:	b2cd      	uxtb	r5, r1
   8318e:	ea45 2505 	orr.w	r5, r5, r5, lsl #8
   83192:	2c0f      	cmp	r4, #15
   83194:	ea45 4505 	orr.w	r5, r5, r5, lsl #16
   83198:	d919      	bls.n	831ce <memset+0x66>
   8319a:	4626      	mov	r6, r4
   8319c:	f103 0210 	add.w	r2, r3, #16
   831a0:	3e10      	subs	r6, #16
   831a2:	2e0f      	cmp	r6, #15
   831a4:	f842 5c10 	str.w	r5, [r2, #-16]
   831a8:	f842 5c0c 	str.w	r5, [r2, #-12]
   831ac:	f842 5c08 	str.w	r5, [r2, #-8]
   831b0:	f842 5c04 	str.w	r5, [r2, #-4]
   831b4:	f102 0210 	add.w	r2, r2, #16
   831b8:	d8f2      	bhi.n	831a0 <memset+0x38>
   831ba:	f1a4 0210 	sub.w	r2, r4, #16
   831be:	f022 020f 	bic.w	r2, r2, #15
   831c2:	f004 040f 	and.w	r4, r4, #15
   831c6:	3210      	adds	r2, #16
   831c8:	2c03      	cmp	r4, #3
   831ca:	4413      	add	r3, r2
   831cc:	d90d      	bls.n	831ea <memset+0x82>
   831ce:	461e      	mov	r6, r3
   831d0:	4622      	mov	r2, r4
   831d2:	3a04      	subs	r2, #4
   831d4:	2a03      	cmp	r2, #3
   831d6:	f846 5b04 	str.w	r5, [r6], #4
   831da:	d8fa      	bhi.n	831d2 <memset+0x6a>
   831dc:	1f22      	subs	r2, r4, #4
   831de:	f022 0203 	bic.w	r2, r2, #3
   831e2:	3204      	adds	r2, #4
   831e4:	4413      	add	r3, r2
   831e6:	f004 0403 	and.w	r4, r4, #3
   831ea:	b12c      	cbz	r4, 831f8 <memset+0x90>
   831ec:	b2c9      	uxtb	r1, r1
   831ee:	441c      	add	r4, r3
   831f0:	f803 1b01 	strb.w	r1, [r3], #1
   831f4:	42a3      	cmp	r3, r4
   831f6:	d1fb      	bne.n	831f0 <memset+0x88>
   831f8:	bc70      	pop	{r4, r5, r6}
   831fa:	4770      	bx	lr
   831fc:	4614      	mov	r4, r2
   831fe:	4603      	mov	r3, r0
   83200:	e7c2      	b.n	83188 <memset+0x20>
   83202:	bf00      	nop

00083204 <register_fini>:
   83204:	4b02      	ldr	r3, [pc, #8]	; (83210 <register_fini+0xc>)
   83206:	b113      	cbz	r3, 8320e <register_fini+0xa>
   83208:	4802      	ldr	r0, [pc, #8]	; (83214 <register_fini+0x10>)
   8320a:	f000 b805 	b.w	83218 <atexit>
   8320e:	4770      	bx	lr
   83210:	00000000 	.word	0x00000000
   83214:	00083225 	.word	0x00083225

00083218 <atexit>:
   83218:	4601      	mov	r1, r0
   8321a:	2000      	movs	r0, #0
   8321c:	4602      	mov	r2, r0
   8321e:	4603      	mov	r3, r0
   83220:	f000 b816 	b.w	83250 <__register_exitproc>

00083224 <__libc_fini_array>:
   83224:	b538      	push	{r3, r4, r5, lr}
   83226:	4b08      	ldr	r3, [pc, #32]	; (83248 <__libc_fini_array+0x24>)
   83228:	4d08      	ldr	r5, [pc, #32]	; (8324c <__libc_fini_array+0x28>)
   8322a:	1aed      	subs	r5, r5, r3
   8322c:	10ac      	asrs	r4, r5, #2
   8322e:	bf18      	it	ne
   83230:	18ed      	addne	r5, r5, r3
   83232:	d005      	beq.n	83240 <__libc_fini_array+0x1c>
   83234:	3c01      	subs	r4, #1
   83236:	f855 3d04 	ldr.w	r3, [r5, #-4]!
   8323a:	4798      	blx	r3
   8323c:	2c00      	cmp	r4, #0
   8323e:	d1f9      	bne.n	83234 <__libc_fini_array+0x10>
   83240:	e8bd 4038 	ldmia.w	sp!, {r3, r4, r5, lr}
   83244:	f000 b958 	b.w	834f8 <_fini>
   83248:	00083504 	.word	0x00083504
   8324c:	00083508 	.word	0x00083508

00083250 <__register_exitproc>:
   83250:	e92d 47f0 	stmdb	sp!, {r4, r5, r6, r7, r8, r9, sl, lr}
   83254:	4c25      	ldr	r4, [pc, #148]	; (832ec <__register_exitproc+0x9c>)
   83256:	4606      	mov	r6, r0
   83258:	6825      	ldr	r5, [r4, #0]
   8325a:	4688      	mov	r8, r1
   8325c:	f8d5 4148 	ldr.w	r4, [r5, #328]	; 0x148
   83260:	4692      	mov	sl, r2
   83262:	4699      	mov	r9, r3
   83264:	b3c4      	cbz	r4, 832d8 <__register_exitproc+0x88>
   83266:	6860      	ldr	r0, [r4, #4]
   83268:	281f      	cmp	r0, #31
   8326a:	dc17      	bgt.n	8329c <__register_exitproc+0x4c>
   8326c:	1c41      	adds	r1, r0, #1
   8326e:	b176      	cbz	r6, 8328e <__register_exitproc+0x3e>
   83270:	eb04 0380 	add.w	r3, r4, r0, lsl #2
   83274:	f8c3 a088 	str.w	sl, [r3, #136]	; 0x88
   83278:	f8d4 5188 	ldr.w	r5, [r4, #392]	; 0x188
   8327c:	2201      	movs	r2, #1
   8327e:	4082      	lsls	r2, r0
   83280:	4315      	orrs	r5, r2
   83282:	2e02      	cmp	r6, #2
   83284:	f8c4 5188 	str.w	r5, [r4, #392]	; 0x188
   83288:	f8c3 9108 	str.w	r9, [r3, #264]	; 0x108
   8328c:	d01e      	beq.n	832cc <__register_exitproc+0x7c>
   8328e:	1c83      	adds	r3, r0, #2
   83290:	6061      	str	r1, [r4, #4]
   83292:	2000      	movs	r0, #0
   83294:	f844 8023 	str.w	r8, [r4, r3, lsl #2]
   83298:	e8bd 87f0 	ldmia.w	sp!, {r4, r5, r6, r7, r8, r9, sl, pc}
   8329c:	4b14      	ldr	r3, [pc, #80]	; (832f0 <__register_exitproc+0xa0>)
   8329e:	b303      	cbz	r3, 832e2 <__register_exitproc+0x92>
   832a0:	f44f 70c8 	mov.w	r0, #400	; 0x190
   832a4:	f3af 8000 	nop.w
   832a8:	4604      	mov	r4, r0
   832aa:	b1d0      	cbz	r0, 832e2 <__register_exitproc+0x92>
   832ac:	f8d5 3148 	ldr.w	r3, [r5, #328]	; 0x148
   832b0:	2700      	movs	r7, #0
   832b2:	e884 0088 	stmia.w	r4, {r3, r7}
   832b6:	4638      	mov	r0, r7
   832b8:	f8c5 4148 	str.w	r4, [r5, #328]	; 0x148
   832bc:	2101      	movs	r1, #1
   832be:	f8c4 7188 	str.w	r7, [r4, #392]	; 0x188
   832c2:	f8c4 718c 	str.w	r7, [r4, #396]	; 0x18c
   832c6:	2e00      	cmp	r6, #0
   832c8:	d0e1      	beq.n	8328e <__register_exitproc+0x3e>
   832ca:	e7d1      	b.n	83270 <__register_exitproc+0x20>
   832cc:	f8d4 318c 	ldr.w	r3, [r4, #396]	; 0x18c
   832d0:	431a      	orrs	r2, r3
   832d2:	f8c4 218c 	str.w	r2, [r4, #396]	; 0x18c
   832d6:	e7da      	b.n	8328e <__register_exitproc+0x3e>
   832d8:	f505 74a6 	add.w	r4, r5, #332	; 0x14c
   832dc:	f8c5 4148 	str.w	r4, [r5, #328]	; 0x148
   832e0:	e7c1      	b.n	83266 <__register_exitproc+0x16>
   832e2:	f04f 30ff 	mov.w	r0, #4294967295
   832e6:	e8bd 87f0 	ldmia.w	sp!, {r4, r5, r6, r7, r8, r9, sl, pc}
   832ea:	bf00      	nop
   832ec:	000834e0 	.word	0x000834e0
   832f0:	00000000 	.word	0x00000000
   832f4:	31303030 	.word	0x31303030
   832f8:	00000000 	.word	0x00000000

000832fc <keyMap>:
	...
   8333c:	00000029 0000002b 00000035 0000001e     )...+...5.......
   8334c:	00000014 00000004 0000001d 00000000     ................
   8335c:	00000000 00000039 0000003a 0000001f     ....9...:.......
   8336c:	0000001a 00000016 0000001b 00000000     ................
   8337c:	0000003d 0000003c 0000003b 00000020     =...<...;... ...
   8338c:	00000008 00000007 00000006 00000000     ................
	...
   834dc:	00000043                                C...

000834e0 <_global_impure_ptr>:
   834e0:	20070260                                `.. 

000834e4 <_init>:
   834e4:	b5f8      	push	{r3, r4, r5, r6, r7, lr}
   834e6:	bf00      	nop
   834e8:	bcf8      	pop	{r3, r4, r5, r6, r7}
   834ea:	bc08      	pop	{r3}
   834ec:	469e      	mov	lr, r3
   834ee:	4770      	bx	lr

000834f0 <__init_array_start>:
   834f0:	00083205 	.word	0x00083205

000834f4 <__frame_dummy_init_array_entry>:
   834f4:	00080119                                ....

000834f8 <_fini>:
   834f8:	b5f8      	push	{r3, r4, r5, r6, r7, lr}
   834fa:	bf00      	nop
   834fc:	bcf8      	pop	{r3, r4, r5, r6, r7}
   834fe:	bc08      	pop	{r3}
   83500:	469e      	mov	lr, r3
   83502:	4770      	bx	lr

00083504 <__fini_array_start>:
   83504:	000800f5 	.word	0x000800f5

Disassembly of section .relocate:

20070000 <SystemInit>:
20070000:	481d      	ldr	r0, [pc, #116]	; (20070078 <SystemInit+0x78>)
20070002:	491e      	ldr	r1, [pc, #120]	; (2007007c <SystemInit+0x7c>)
20070004:	f44f 6280 	mov.w	r2, #1024	; 0x400
20070008:	4b1d      	ldr	r3, [pc, #116]	; (20070080 <SystemInit+0x80>)
2007000a:	6002      	str	r2, [r0, #0]
2007000c:	600a      	str	r2, [r1, #0]
2007000e:	6a1a      	ldr	r2, [r3, #32]
20070010:	01d0      	lsls	r0, r2, #7
20070012:	d405      	bmi.n	20070020 <SystemInit+0x20>
20070014:	461a      	mov	r2, r3
20070016:	491b      	ldr	r1, [pc, #108]	; (20070084 <SystemInit+0x84>)
20070018:	6219      	str	r1, [r3, #32]
2007001a:	6e93      	ldr	r3, [r2, #104]	; 0x68
2007001c:	07d9      	lsls	r1, r3, #31
2007001e:	d5fc      	bpl.n	2007001a <SystemInit+0x1a>
20070020:	4b17      	ldr	r3, [pc, #92]	; (20070080 <SystemInit+0x80>)
20070022:	4a19      	ldr	r2, [pc, #100]	; (20070088 <SystemInit+0x88>)
20070024:	4619      	mov	r1, r3
20070026:	621a      	str	r2, [r3, #32]
20070028:	6e8b      	ldr	r3, [r1, #104]	; 0x68
2007002a:	4a15      	ldr	r2, [pc, #84]	; (20070080 <SystemInit+0x80>)
2007002c:	03db      	lsls	r3, r3, #15
2007002e:	d5fb      	bpl.n	20070028 <SystemInit+0x28>
20070030:	4611      	mov	r1, r2
20070032:	6b13      	ldr	r3, [r2, #48]	; 0x30
20070034:	f023 0303 	bic.w	r3, r3, #3
20070038:	f043 0301 	orr.w	r3, r3, #1
2007003c:	6313      	str	r3, [r2, #48]	; 0x30
2007003e:	6e8b      	ldr	r3, [r1, #104]	; 0x68
20070040:	4a0f      	ldr	r2, [pc, #60]	; (20070080 <SystemInit+0x80>)
20070042:	0718      	lsls	r0, r3, #28
20070044:	d5fb      	bpl.n	2007003e <SystemInit+0x3e>
20070046:	4611      	mov	r1, r2
20070048:	4b10      	ldr	r3, [pc, #64]	; (2007008c <SystemInit+0x8c>)
2007004a:	6293      	str	r3, [r2, #40]	; 0x28
2007004c:	6e8b      	ldr	r3, [r1, #104]	; 0x68
2007004e:	4a0c      	ldr	r2, [pc, #48]	; (20070080 <SystemInit+0x80>)
20070050:	079b      	lsls	r3, r3, #30
20070052:	d5fb      	bpl.n	2007004c <SystemInit+0x4c>
20070054:	4611      	mov	r1, r2
20070056:	2311      	movs	r3, #17
20070058:	6313      	str	r3, [r2, #48]	; 0x30
2007005a:	6e8b      	ldr	r3, [r1, #104]	; 0x68
2007005c:	4a08      	ldr	r2, [pc, #32]	; (20070080 <SystemInit+0x80>)
2007005e:	0718      	lsls	r0, r3, #28
20070060:	d5fb      	bpl.n	2007005a <SystemInit+0x5a>
20070062:	4611      	mov	r1, r2
20070064:	2312      	movs	r3, #18
20070066:	6313      	str	r3, [r2, #48]	; 0x30
20070068:	6e8b      	ldr	r3, [r1, #104]	; 0x68
2007006a:	071b      	lsls	r3, r3, #28
2007006c:	d5fc      	bpl.n	20070068 <SystemInit+0x68>
2007006e:	4b08      	ldr	r3, [pc, #32]	; (20070090 <SystemInit+0x90>)
20070070:	4a08      	ldr	r2, [pc, #32]	; (20070094 <SystemInit+0x94>)
20070072:	601a      	str	r2, [r3, #0]
20070074:	4770      	bx	lr
20070076:	bf00      	nop
20070078:	400e0a00 	.word	0x400e0a00
2007007c:	400e0c00 	.word	0x400e0c00
20070080:	400e0600 	.word	0x400e0600
20070084:	00370809 	.word	0x00370809
20070088:	01370809 	.word	0x01370809
2007008c:	200d3f01 	.word	0x200d3f01
20070090:	200701f8 	.word	0x200701f8
20070094:	0501bd00 	.word	0x0501bd00

20070098 <system_init_flash>:
20070098:	4b19      	ldr	r3, [pc, #100]	; (20070100 <system_init_flash+0x68>)
2007009a:	4298      	cmp	r0, r3
2007009c:	d91b      	bls.n	200700d6 <system_init_flash+0x3e>
2007009e:	4b19      	ldr	r3, [pc, #100]	; (20070104 <system_init_flash+0x6c>)
200700a0:	4298      	cmp	r0, r3
200700a2:	d911      	bls.n	200700c8 <system_init_flash+0x30>
200700a4:	4b18      	ldr	r3, [pc, #96]	; (20070108 <system_init_flash+0x70>)
200700a6:	4298      	cmp	r0, r3
200700a8:	d922      	bls.n	200700f0 <system_init_flash+0x58>
200700aa:	4b18      	ldr	r3, [pc, #96]	; (2007010c <system_init_flash+0x74>)
200700ac:	4298      	cmp	r0, r3
200700ae:	d918      	bls.n	200700e2 <system_init_flash+0x4a>
200700b0:	4b17      	ldr	r3, [pc, #92]	; (20070110 <system_init_flash+0x78>)
200700b2:	4918      	ldr	r1, [pc, #96]	; (20070114 <system_init_flash+0x7c>)
200700b4:	4298      	cmp	r0, r3
200700b6:	4a18      	ldr	r2, [pc, #96]	; (20070118 <system_init_flash+0x80>)
200700b8:	bf94      	ite	ls
200700ba:	f44f 6380 	movls.w	r3, #1024	; 0x400
200700be:	f44f 63a0 	movhi.w	r3, #1280	; 0x500
200700c2:	600b      	str	r3, [r1, #0]
200700c4:	6013      	str	r3, [r2, #0]
200700c6:	4770      	bx	lr
200700c8:	4912      	ldr	r1, [pc, #72]	; (20070114 <system_init_flash+0x7c>)
200700ca:	4a13      	ldr	r2, [pc, #76]	; (20070118 <system_init_flash+0x80>)
200700cc:	f44f 7380 	mov.w	r3, #256	; 0x100
200700d0:	600b      	str	r3, [r1, #0]
200700d2:	6013      	str	r3, [r2, #0]
200700d4:	4770      	bx	lr
200700d6:	490f      	ldr	r1, [pc, #60]	; (20070114 <system_init_flash+0x7c>)
200700d8:	4a0f      	ldr	r2, [pc, #60]	; (20070118 <system_init_flash+0x80>)
200700da:	2300      	movs	r3, #0
200700dc:	600b      	str	r3, [r1, #0]
200700de:	6013      	str	r3, [r2, #0]
200700e0:	4770      	bx	lr
200700e2:	490c      	ldr	r1, [pc, #48]	; (20070114 <system_init_flash+0x7c>)
200700e4:	4a0c      	ldr	r2, [pc, #48]	; (20070118 <system_init_flash+0x80>)
200700e6:	f44f 7340 	mov.w	r3, #768	; 0x300
200700ea:	600b      	str	r3, [r1, #0]
200700ec:	6013      	str	r3, [r2, #0]
200700ee:	4770      	bx	lr
200700f0:	4908      	ldr	r1, [pc, #32]	; (20070114 <system_init_flash+0x7c>)
200700f2:	4a09      	ldr	r2, [pc, #36]	; (20070118 <system_init_flash+0x80>)
200700f4:	f44f 7300 	mov.w	r3, #512	; 0x200
200700f8:	600b      	str	r3, [r1, #0]
200700fa:	6013      	str	r3, [r2, #0]
200700fc:	4770      	bx	lr
200700fe:	bf00      	nop
20070100:	0121eabf 	.word	0x0121eabf
20070104:	02faf07f 	.word	0x02faf07f
20070108:	03d08fff 	.word	0x03d08fff
2007010c:	04c4b3ff 	.word	0x04c4b3ff
20070110:	055d4a7f 	.word	0x055d4a7f
20070114:	400e0a00 	.word	0x400e0a00
20070118:	400e0c00 	.word	0x400e0c00

2007011c <udi_hid_kbd_report_desc>:
2007011c:	06090105 070501a1 e729e019 01250015     ..........)...%.
2007012c:	08950175 01810281 65290019 65250015     u.........)e..%e
2007013c:	06950875 08050081 05290119 01250015     u.........)...%.
2007014c:	05950175 03950291 00c00191              u...........

20070158 <udi_api_hid_kbd>:
20070158:	00080159 00080191 0008019d 00080151     Y...........Q...
20070168:	00000000                                ....

2007016c <udc_string_product_name>:
2007016c:	65646f4d 53554d6c 00000042              ModelMUSB...

20070178 <udc_string_manufacturer_name>:
20070178:	6977654c 6f502073 72657472 00000000     Lewis Porter....

20070188 <udc_string_desc>:
20070188:	00000300 00000000 00000000 00000000     ................
	...

200701a4 <udc_string_desc_languageid>:
200701a4:	04090304                                ....

200701a8 <udc_desc>:
200701a8:	00220209 80000101 00040932 00030100     ..".....2.......
200701b8:	21090001 01000111 07003b22 08038105     ...!....";......
200701c8:	00000200                                ....

200701cc <udc_config_fshs>:
200701cc:	200701a8 200701e0                       ... ... 

200701d4 <udc_config>:
200701d4:	200701e4 200701cc 00000000              ... ... ....

200701e0 <udi_apis>:
200701e0:	20070158                                X.. 

200701e4 <udc_device_desc>:
200701e4:	02000112 08000000 48256666 02010100     ........ff%H....
200701f4:	00010103                                         ..

200701f6 <g_interrupt_enabled>:
200701f6:	09000001                                         ..

200701f8 <SystemCoreClock>:
200701f8:	003d0900                                ..=.

200701fc <columnPins>:
200701fc:	00000046 00000047 00000048 00000049     F...G...H...I...
2007020c:	00000013 00000014 00000053 00000052     ........S...R...

2007021c <keyboardEnabledFlag>:
2007021c:	00000001                                ....

20070220 <rowPins>:
20070220:	0000003a 0000000e 0000000f 00000060     :...........`...
20070230:	00000061 00000062 00000063 00000066     a...b...c...f...
20070240:	00000069 00000007 0000006a 00000041     i.......j...A...
20070250:	00000042 00000043 00000044 00000045     B...C...D...E...

20070260 <impure_data>:
20070260:	00000000 2007054c 200705b4 2007061c     ....L.. ... ... 
	...
20070294:	000834dc 00000000 00000000 00000000     .4..............
	...
20070308:	00000001 00000000 abcd330e e66d1234     .........3..4.m.
20070318:	0005deec 0000000b 00000000 00000000     ................
	...
